
ctarget:     file format elf64-x86-64


Disassembly of section .init:

0000000000400bb0 <_init>:
  400bb0:	48 83 ec 08          	sub    $0x8,%rsp
  400bb4:	48 8b 05 3d 34 20 00 	mov    0x20343d(%rip),%rax        # 603ff8 <__gmon_start__>
  400bbb:	48 85 c0             	test   %rax,%rax
  400bbe:	74 02                	je     400bc2 <_init+0x12>
  400bc0:	ff d0                	callq  *%rax
  400bc2:	48 83 c4 08          	add    $0x8,%rsp
  400bc6:	c3                   	retq   

Disassembly of section .plt:

0000000000400bd0 <.plt>:
  400bd0:	ff 35 32 34 20 00    	pushq  0x203432(%rip)        # 604008 <_GLOBAL_OFFSET_TABLE_+0x8>
  400bd6:	ff 25 34 34 20 00    	jmpq   *0x203434(%rip)        # 604010 <_GLOBAL_OFFSET_TABLE_+0x10>
  400bdc:	0f 1f 40 00          	nopl   0x0(%rax)

0000000000400be0 <strcasecmp@plt>:
  400be0:	ff 25 32 34 20 00    	jmpq   *0x203432(%rip)        # 604018 <strcasecmp@GLIBC_2.2.5>
  400be6:	68 00 00 00 00       	pushq  $0x0
  400beb:	e9 e0 ff ff ff       	jmpq   400bd0 <.plt>

0000000000400bf0 <__errno_location@plt>:
  400bf0:	ff 25 2a 34 20 00    	jmpq   *0x20342a(%rip)        # 604020 <__errno_location@GLIBC_2.2.5>
  400bf6:	68 01 00 00 00       	pushq  $0x1
  400bfb:	e9 d0 ff ff ff       	jmpq   400bd0 <.plt>

0000000000400c00 <srandom@plt>:
  400c00:	ff 25 22 34 20 00    	jmpq   *0x203422(%rip)        # 604028 <srandom@GLIBC_2.2.5>
  400c06:	68 02 00 00 00       	pushq  $0x2
  400c0b:	e9 c0 ff ff ff       	jmpq   400bd0 <.plt>

0000000000400c10 <strncmp@plt>:
  400c10:	ff 25 1a 34 20 00    	jmpq   *0x20341a(%rip)        # 604030 <strncmp@GLIBC_2.2.5>
  400c16:	68 03 00 00 00       	pushq  $0x3
  400c1b:	e9 b0 ff ff ff       	jmpq   400bd0 <.plt>

0000000000400c20 <strcpy@plt>:
  400c20:	ff 25 12 34 20 00    	jmpq   *0x203412(%rip)        # 604038 <strcpy@GLIBC_2.2.5>
  400c26:	68 04 00 00 00       	pushq  $0x4
  400c2b:	e9 a0 ff ff ff       	jmpq   400bd0 <.plt>

0000000000400c30 <puts@plt>:
  400c30:	ff 25 0a 34 20 00    	jmpq   *0x20340a(%rip)        # 604040 <puts@GLIBC_2.2.5>
  400c36:	68 05 00 00 00       	pushq  $0x5
  400c3b:	e9 90 ff ff ff       	jmpq   400bd0 <.plt>

0000000000400c40 <write@plt>:
  400c40:	ff 25 02 34 20 00    	jmpq   *0x203402(%rip)        # 604048 <write@GLIBC_2.2.5>
  400c46:	68 06 00 00 00       	pushq  $0x6
  400c4b:	e9 80 ff ff ff       	jmpq   400bd0 <.plt>

0000000000400c50 <mmap@plt>:
  400c50:	ff 25 fa 33 20 00    	jmpq   *0x2033fa(%rip)        # 604050 <mmap@GLIBC_2.2.5>
  400c56:	68 07 00 00 00       	pushq  $0x7
  400c5b:	e9 70 ff ff ff       	jmpq   400bd0 <.plt>

0000000000400c60 <printf@plt>:
  400c60:	ff 25 f2 33 20 00    	jmpq   *0x2033f2(%rip)        # 604058 <printf@GLIBC_2.2.5>
  400c66:	68 08 00 00 00       	pushq  $0x8
  400c6b:	e9 60 ff ff ff       	jmpq   400bd0 <.plt>

0000000000400c70 <memset@plt>:
  400c70:	ff 25 ea 33 20 00    	jmpq   *0x2033ea(%rip)        # 604060 <memset@GLIBC_2.2.5>
  400c76:	68 09 00 00 00       	pushq  $0x9
  400c7b:	e9 50 ff ff ff       	jmpq   400bd0 <.plt>

0000000000400c80 <alarm@plt>:
  400c80:	ff 25 e2 33 20 00    	jmpq   *0x2033e2(%rip)        # 604068 <alarm@GLIBC_2.2.5>
  400c86:	68 0a 00 00 00       	pushq  $0xa
  400c8b:	e9 40 ff ff ff       	jmpq   400bd0 <.plt>

0000000000400c90 <close@plt>:
  400c90:	ff 25 da 33 20 00    	jmpq   *0x2033da(%rip)        # 604070 <close@GLIBC_2.2.5>
  400c96:	68 0b 00 00 00       	pushq  $0xb
  400c9b:	e9 30 ff ff ff       	jmpq   400bd0 <.plt>

0000000000400ca0 <read@plt>:
  400ca0:	ff 25 d2 33 20 00    	jmpq   *0x2033d2(%rip)        # 604078 <read@GLIBC_2.2.5>
  400ca6:	68 0c 00 00 00       	pushq  $0xc
  400cab:	e9 20 ff ff ff       	jmpq   400bd0 <.plt>

0000000000400cb0 <signal@plt>:
  400cb0:	ff 25 ca 33 20 00    	jmpq   *0x2033ca(%rip)        # 604080 <signal@GLIBC_2.2.5>
  400cb6:	68 0d 00 00 00       	pushq  $0xd
  400cbb:	e9 10 ff ff ff       	jmpq   400bd0 <.plt>

0000000000400cc0 <gethostbyname@plt>:
  400cc0:	ff 25 c2 33 20 00    	jmpq   *0x2033c2(%rip)        # 604088 <gethostbyname@GLIBC_2.2.5>
  400cc6:	68 0e 00 00 00       	pushq  $0xe
  400ccb:	e9 00 ff ff ff       	jmpq   400bd0 <.plt>

0000000000400cd0 <fprintf@plt>:
  400cd0:	ff 25 ba 33 20 00    	jmpq   *0x2033ba(%rip)        # 604090 <fprintf@GLIBC_2.2.5>
  400cd6:	68 0f 00 00 00       	pushq  $0xf
  400cdb:	e9 f0 fe ff ff       	jmpq   400bd0 <.plt>

0000000000400ce0 <strtol@plt>:
  400ce0:	ff 25 b2 33 20 00    	jmpq   *0x2033b2(%rip)        # 604098 <strtol@GLIBC_2.2.5>
  400ce6:	68 10 00 00 00       	pushq  $0x10
  400ceb:	e9 e0 fe ff ff       	jmpq   400bd0 <.plt>

0000000000400cf0 <memcpy@plt>:
  400cf0:	ff 25 aa 33 20 00    	jmpq   *0x2033aa(%rip)        # 6040a0 <memcpy@GLIBC_2.14>
  400cf6:	68 11 00 00 00       	pushq  $0x11
  400cfb:	e9 d0 fe ff ff       	jmpq   400bd0 <.plt>

0000000000400d00 <time@plt>:
  400d00:	ff 25 a2 33 20 00    	jmpq   *0x2033a2(%rip)        # 6040a8 <time@GLIBC_2.2.5>
  400d06:	68 12 00 00 00       	pushq  $0x12
  400d0b:	e9 c0 fe ff ff       	jmpq   400bd0 <.plt>

0000000000400d10 <random@plt>:
  400d10:	ff 25 9a 33 20 00    	jmpq   *0x20339a(%rip)        # 6040b0 <random@GLIBC_2.2.5>
  400d16:	68 13 00 00 00       	pushq  $0x13
  400d1b:	e9 b0 fe ff ff       	jmpq   400bd0 <.plt>

0000000000400d20 <_IO_getc@plt>:
  400d20:	ff 25 92 33 20 00    	jmpq   *0x203392(%rip)        # 6040b8 <_IO_getc@GLIBC_2.2.5>
  400d26:	68 14 00 00 00       	pushq  $0x14
  400d2b:	e9 a0 fe ff ff       	jmpq   400bd0 <.plt>

0000000000400d30 <__isoc99_sscanf@plt>:
  400d30:	ff 25 8a 33 20 00    	jmpq   *0x20338a(%rip)        # 6040c0 <__isoc99_sscanf@GLIBC_2.7>
  400d36:	68 15 00 00 00       	pushq  $0x15
  400d3b:	e9 90 fe ff ff       	jmpq   400bd0 <.plt>

0000000000400d40 <munmap@plt>:
  400d40:	ff 25 82 33 20 00    	jmpq   *0x203382(%rip)        # 6040c8 <munmap@GLIBC_2.2.5>
  400d46:	68 16 00 00 00       	pushq  $0x16
  400d4b:	e9 80 fe ff ff       	jmpq   400bd0 <.plt>

0000000000400d50 <bcopy@plt>:
  400d50:	ff 25 7a 33 20 00    	jmpq   *0x20337a(%rip)        # 6040d0 <bcopy@GLIBC_2.2.5>
  400d56:	68 17 00 00 00       	pushq  $0x17
  400d5b:	e9 70 fe ff ff       	jmpq   400bd0 <.plt>

0000000000400d60 <fopen@plt>:
  400d60:	ff 25 72 33 20 00    	jmpq   *0x203372(%rip)        # 6040d8 <fopen@GLIBC_2.2.5>
  400d66:	68 18 00 00 00       	pushq  $0x18
  400d6b:	e9 60 fe ff ff       	jmpq   400bd0 <.plt>

0000000000400d70 <getopt@plt>:
  400d70:	ff 25 6a 33 20 00    	jmpq   *0x20336a(%rip)        # 6040e0 <getopt@GLIBC_2.2.5>
  400d76:	68 19 00 00 00       	pushq  $0x19
  400d7b:	e9 50 fe ff ff       	jmpq   400bd0 <.plt>

0000000000400d80 <strtoul@plt>:
  400d80:	ff 25 62 33 20 00    	jmpq   *0x203362(%rip)        # 6040e8 <strtoul@GLIBC_2.2.5>
  400d86:	68 1a 00 00 00       	pushq  $0x1a
  400d8b:	e9 40 fe ff ff       	jmpq   400bd0 <.plt>

0000000000400d90 <gethostname@plt>:
  400d90:	ff 25 5a 33 20 00    	jmpq   *0x20335a(%rip)        # 6040f0 <gethostname@GLIBC_2.2.5>
  400d96:	68 1b 00 00 00       	pushq  $0x1b
  400d9b:	e9 30 fe ff ff       	jmpq   400bd0 <.plt>

0000000000400da0 <sprintf@plt>:
  400da0:	ff 25 52 33 20 00    	jmpq   *0x203352(%rip)        # 6040f8 <sprintf@GLIBC_2.2.5>
  400da6:	68 1c 00 00 00       	pushq  $0x1c
  400dab:	e9 20 fe ff ff       	jmpq   400bd0 <.plt>

0000000000400db0 <exit@plt>:
  400db0:	ff 25 4a 33 20 00    	jmpq   *0x20334a(%rip)        # 604100 <exit@GLIBC_2.2.5>
  400db6:	68 1d 00 00 00       	pushq  $0x1d
  400dbb:	e9 10 fe ff ff       	jmpq   400bd0 <.plt>

0000000000400dc0 <connect@plt>:
  400dc0:	ff 25 42 33 20 00    	jmpq   *0x203342(%rip)        # 604108 <connect@GLIBC_2.2.5>
  400dc6:	68 1e 00 00 00       	pushq  $0x1e
  400dcb:	e9 00 fe ff ff       	jmpq   400bd0 <.plt>

0000000000400dd0 <socket@plt>:
  400dd0:	ff 25 3a 33 20 00    	jmpq   *0x20333a(%rip)        # 604110 <socket@GLIBC_2.2.5>
  400dd6:	68 1f 00 00 00       	pushq  $0x1f
  400ddb:	e9 f0 fd ff ff       	jmpq   400bd0 <.plt>

Disassembly of section .text:

0000000000400de0 <_start>:
  400de0:	31 ed                	xor    %ebp,%ebp
  400de2:	49 89 d1             	mov    %rdx,%r9
  400de5:	5e                   	pop    %rsi
  400de6:	48 89 e2             	mov    %rsp,%rdx
  400de9:	48 83 e4 f0          	and    $0xfffffffffffffff0,%rsp
  400ded:	50                   	push   %rax
  400dee:	54                   	push   %rsp
  400def:	49 c7 c0 e0 2b 40 00 	mov    $0x402be0,%r8
  400df6:	48 c7 c1 70 2b 40 00 	mov    $0x402b70,%rcx
  400dfd:	48 c7 c7 8d 10 40 00 	mov    $0x40108d,%rdi
  400e04:	ff 15 e6 31 20 00    	callq  *0x2031e6(%rip)        # 603ff0 <__libc_start_main@GLIBC_2.2.5>
  400e0a:	f4                   	hlt    
  400e0b:	0f 1f 44 00 00       	nopl   0x0(%rax,%rax,1)

0000000000400e10 <deregister_tm_clones>:
  400e10:	b8 97 44 60 00       	mov    $0x604497,%eax
  400e15:	55                   	push   %rbp
  400e16:	48 2d 90 44 60 00    	sub    $0x604490,%rax
  400e1c:	48 83 f8 0e          	cmp    $0xe,%rax
  400e20:	48 89 e5             	mov    %rsp,%rbp
  400e23:	76 1b                	jbe    400e40 <deregister_tm_clones+0x30>
  400e25:	b8 00 00 00 00       	mov    $0x0,%eax
  400e2a:	48 85 c0             	test   %rax,%rax
  400e2d:	74 11                	je     400e40 <deregister_tm_clones+0x30>
  400e2f:	5d                   	pop    %rbp
  400e30:	bf 90 44 60 00       	mov    $0x604490,%edi
  400e35:	ff e0                	jmpq   *%rax
  400e37:	66 0f 1f 84 00 00 00 	nopw   0x0(%rax,%rax,1)
  400e3e:	00 00 
  400e40:	5d                   	pop    %rbp
  400e41:	c3                   	retq   
  400e42:	0f 1f 40 00          	nopl   0x0(%rax)
  400e46:	66 2e 0f 1f 84 00 00 	nopw   %cs:0x0(%rax,%rax,1)
  400e4d:	00 00 00 

0000000000400e50 <register_tm_clones>:
  400e50:	be 90 44 60 00       	mov    $0x604490,%esi
  400e55:	55                   	push   %rbp
  400e56:	48 81 ee 90 44 60 00 	sub    $0x604490,%rsi
  400e5d:	48 c1 fe 03          	sar    $0x3,%rsi
  400e61:	48 89 e5             	mov    %rsp,%rbp
  400e64:	48 89 f0             	mov    %rsi,%rax
  400e67:	48 c1 e8 3f          	shr    $0x3f,%rax
  400e6b:	48 01 c6             	add    %rax,%rsi
  400e6e:	48 d1 fe             	sar    %rsi
  400e71:	74 15                	je     400e88 <register_tm_clones+0x38>
  400e73:	b8 00 00 00 00       	mov    $0x0,%eax
  400e78:	48 85 c0             	test   %rax,%rax
  400e7b:	74 0b                	je     400e88 <register_tm_clones+0x38>
  400e7d:	5d                   	pop    %rbp
  400e7e:	bf 90 44 60 00       	mov    $0x604490,%edi
  400e83:	ff e0                	jmpq   *%rax
  400e85:	0f 1f 00             	nopl   (%rax)
  400e88:	5d                   	pop    %rbp
  400e89:	c3                   	retq   
  400e8a:	66 0f 1f 44 00 00    	nopw   0x0(%rax,%rax,1)

0000000000400e90 <__do_global_dtors_aux>:
  400e90:	80 3d 31 36 20 00 00 	cmpb   $0x0,0x203631(%rip)        # 6044c8 <completed.6972>
  400e97:	75 11                	jne    400eaa <__do_global_dtors_aux+0x1a>
  400e99:	55                   	push   %rbp
  400e9a:	48 89 e5             	mov    %rsp,%rbp
  400e9d:	e8 6e ff ff ff       	callq  400e10 <deregister_tm_clones>
  400ea2:	5d                   	pop    %rbp
  400ea3:	c6 05 1e 36 20 00 01 	movb   $0x1,0x20361e(%rip)        # 6044c8 <completed.6972>
  400eaa:	f3 c3                	repz retq 
  400eac:	0f 1f 40 00          	nopl   0x0(%rax)

0000000000400eb0 <frame_dummy>:
  400eb0:	bf 18 3e 60 00       	mov    $0x603e18,%edi
  400eb5:	48 83 3f 00          	cmpq   $0x0,(%rdi)
  400eb9:	75 05                	jne    400ec0 <frame_dummy+0x10>
  400ebb:	eb 93                	jmp    400e50 <register_tm_clones>
  400ebd:	0f 1f 00             	nopl   (%rax)
  400ec0:	b8 00 00 00 00       	mov    $0x0,%eax
  400ec5:	48 85 c0             	test   %rax,%rax
  400ec8:	74 f1                	je     400ebb <frame_dummy+0xb>
  400eca:	55                   	push   %rbp
  400ecb:	48 89 e5             	mov    %rsp,%rbp
  400ece:	ff d0                	callq  *%rax
  400ed0:	5d                   	pop    %rbp
  400ed1:	e9 7a ff ff ff       	jmpq   400e50 <register_tm_clones>

0000000000400ed6 <usage>:
  400ed6:	48 83 ec 08          	sub    $0x8,%rsp
  400eda:	48 89 fe             	mov    %rdi,%rsi
  400edd:	83 3d 24 36 20 00 00 	cmpl   $0x0,0x203624(%rip)        # 604508 <is_checker>
  400ee4:	74 4b                	je     400f31 <usage+0x5b>
  400ee6:	48 8d 3d 0b 1d 00 00 	lea    0x1d0b(%rip),%rdi        # 402bf8 <_IO_stdin_used+0x8>
  400eed:	b8 00 00 00 00       	mov    $0x0,%eax
  400ef2:	e8 69 fd ff ff       	callq  400c60 <printf@plt>
  400ef7:	48 8d 3d 32 1d 00 00 	lea    0x1d32(%rip),%rdi        # 402c30 <_IO_stdin_used+0x40>
  400efe:	e8 2d fd ff ff       	callq  400c30 <puts@plt>
  400f03:	48 8d 3d 5e 1e 00 00 	lea    0x1e5e(%rip),%rdi        # 402d68 <_IO_stdin_used+0x178>
  400f0a:	e8 21 fd ff ff       	callq  400c30 <puts@plt>
  400f0f:	48 8d 3d 42 1d 00 00 	lea    0x1d42(%rip),%rdi        # 402c58 <_IO_stdin_used+0x68>
  400f16:	e8 15 fd ff ff       	callq  400c30 <puts@plt>
  400f1b:	48 8d 3d 60 1e 00 00 	lea    0x1e60(%rip),%rdi        # 402d82 <_IO_stdin_used+0x192>
  400f22:	e8 09 fd ff ff       	callq  400c30 <puts@plt>
  400f27:	bf 00 00 00 00       	mov    $0x0,%edi
  400f2c:	e8 7f fe ff ff       	callq  400db0 <exit@plt>
  400f31:	48 8d 3d 66 1e 00 00 	lea    0x1e66(%rip),%rdi        # 402d9e <_IO_stdin_used+0x1ae>
  400f38:	b8 00 00 00 00       	mov    $0x0,%eax
  400f3d:	e8 1e fd ff ff       	callq  400c60 <printf@plt>
  400f42:	48 8d 3d 37 1d 00 00 	lea    0x1d37(%rip),%rdi        # 402c80 <_IO_stdin_used+0x90>
  400f49:	e8 e2 fc ff ff       	callq  400c30 <puts@plt>
  400f4e:	48 8d 3d 53 1d 00 00 	lea    0x1d53(%rip),%rdi        # 402ca8 <_IO_stdin_used+0xb8>
  400f55:	e8 d6 fc ff ff       	callq  400c30 <puts@plt>
  400f5a:	48 8d 3d 5b 1e 00 00 	lea    0x1e5b(%rip),%rdi        # 402dbc <_IO_stdin_used+0x1cc>
  400f61:	e8 ca fc ff ff       	callq  400c30 <puts@plt>
  400f66:	eb bf                	jmp    400f27 <usage+0x51>

0000000000400f68 <initialize_target>:
  400f68:	55                   	push   %rbp
  400f69:	53                   	push   %rbx
  400f6a:	48 81 ec 08 21 00 00 	sub    $0x2108,%rsp
  400f71:	89 f5                	mov    %esi,%ebp
  400f73:	89 3d 7f 35 20 00    	mov    %edi,0x20357f(%rip)        # 6044f8 <check_level>
  400f79:	8b 3d b1 31 20 00    	mov    0x2031b1(%rip),%edi        # 604130 <target_id>
  400f7f:	e8 c9 1b 00 00       	callq  402b4d <gencookie>
  400f84:	89 05 7a 35 20 00    	mov    %eax,0x20357a(%rip)        # 604504 <cookie>
  400f8a:	89 c7                	mov    %eax,%edi
  400f8c:	e8 bc 1b 00 00       	callq  402b4d <gencookie>
  400f91:	89 05 69 35 20 00    	mov    %eax,0x203569(%rip)        # 604500 <authkey>
  400f97:	8b 05 93 31 20 00    	mov    0x203193(%rip),%eax        # 604130 <target_id>
  400f9d:	8d 78 01             	lea    0x1(%rax),%edi
  400fa0:	e8 5b fc ff ff       	callq  400c00 <srandom@plt>
  400fa5:	e8 66 fd ff ff       	callq  400d10 <random@plt>
  400faa:	89 c7                	mov    %eax,%edi
  400fac:	e8 c3 02 00 00       	callq  401274 <scramble>
  400fb1:	89 c3                	mov    %eax,%ebx
  400fb3:	85 ed                	test   %ebp,%ebp
  400fb5:	75 3d                	jne    400ff4 <initialize_target+0x8c>
  400fb7:	b8 00 00 00 00       	mov    $0x0,%eax
  400fbc:	01 d8                	add    %ebx,%eax
  400fbe:	0f b7 c0             	movzwl %ax,%eax
  400fc1:	8d 04 c5 00 01 00 00 	lea    0x100(,%rax,8),%eax
  400fc8:	89 c0                	mov    %eax,%eax
  400fca:	48 89 05 af 34 20 00 	mov    %rax,0x2034af(%rip)        # 604480 <buf_offset>
  400fd1:	c6 05 50 41 20 00 63 	movb   $0x63,0x204150(%rip)        # 605128 <target_prefix>
  400fd8:	83 3d a9 34 20 00 00 	cmpl   $0x0,0x2034a9(%rip)        # 604488 <notify>
  400fdf:	74 09                	je     400fea <initialize_target+0x82>
  400fe1:	83 3d 20 35 20 00 00 	cmpl   $0x0,0x203520(%rip)        # 604508 <is_checker>
  400fe8:	74 22                	je     40100c <initialize_target+0xa4>
  400fea:	48 81 c4 08 21 00 00 	add    $0x2108,%rsp
  400ff1:	5b                   	pop    %rbx
  400ff2:	5d                   	pop    %rbp
  400ff3:	c3                   	retq   
  400ff4:	bf 00 00 00 00       	mov    $0x0,%edi
  400ff9:	e8 02 fd ff ff       	callq  400d00 <time@plt>
  400ffe:	89 c7                	mov    %eax,%edi
  401000:	e8 fb fb ff ff       	callq  400c00 <srandom@plt>
  401005:	e8 06 fd ff ff       	callq  400d10 <random@plt>
  40100a:	eb b0                	jmp    400fbc <initialize_target+0x54>
  40100c:	48 89 e7             	mov    %rsp,%rdi
  40100f:	be 00 01 00 00       	mov    $0x100,%esi
  401014:	e8 77 fd ff ff       	callq  400d90 <gethostname@plt>
  401019:	89 c3                	mov    %eax,%ebx
  40101b:	85 c0                	test   %eax,%eax
  40101d:	75 24                	jne    401043 <initialize_target+0xdb>
  40101f:	48 63 c3             	movslq %ebx,%rax
  401022:	48 8d 15 37 31 20 00 	lea    0x203137(%rip),%rdx        # 604160 <host_table>
  401029:	48 8b 3c c2          	mov    (%rdx,%rax,8),%rdi
  40102d:	48 85 ff             	test   %rdi,%rdi
  401030:	74 27                	je     401059 <initialize_target+0xf1>
  401032:	48 89 e6             	mov    %rsp,%rsi
  401035:	e8 a6 fb ff ff       	callq  400be0 <strcasecmp@plt>
  40103a:	85 c0                	test   %eax,%eax
  40103c:	74 1b                	je     401059 <initialize_target+0xf1>
  40103e:	83 c3 01             	add    $0x1,%ebx
  401041:	eb dc                	jmp    40101f <initialize_target+0xb7>
  401043:	48 8d 3d 8e 1c 00 00 	lea    0x1c8e(%rip),%rdi        # 402cd8 <_IO_stdin_used+0xe8>
  40104a:	e8 e1 fb ff ff       	callq  400c30 <puts@plt>
  40104f:	bf 08 00 00 00       	mov    $0x8,%edi
  401054:	e8 57 fd ff ff       	callq  400db0 <exit@plt>
  401059:	48 8d bc 24 00 01 00 	lea    0x100(%rsp),%rdi
  401060:	00 
  401061:	e8 6c 18 00 00       	callq  4028d2 <init_driver>
  401066:	85 c0                	test   %eax,%eax
  401068:	79 80                	jns    400fea <initialize_target+0x82>
  40106a:	48 8d b4 24 00 01 00 	lea    0x100(%rsp),%rsi
  401071:	00 
  401072:	48 8d 3d 97 1c 00 00 	lea    0x1c97(%rip),%rdi        # 402d10 <_IO_stdin_used+0x120>
  401079:	b8 00 00 00 00       	mov    $0x0,%eax
  40107e:	e8 dd fb ff ff       	callq  400c60 <printf@plt>
  401083:	bf 08 00 00 00       	mov    $0x8,%edi
  401088:	e8 23 fd ff ff       	callq  400db0 <exit@plt>

000000000040108d <main>:
  40108d:	41 56                	push   %r14
  40108f:	41 55                	push   %r13
  401091:	41 54                	push   %r12
  401093:	55                   	push   %rbp
  401094:	53                   	push   %rbx
  401095:	41 89 fc             	mov    %edi,%r12d
  401098:	48 89 f3             	mov    %rsi,%rbx
  40109b:	48 c7 c6 78 1c 40 00 	mov    $0x401c78,%rsi
  4010a2:	bf 0b 00 00 00       	mov    $0xb,%edi
  4010a7:	e8 04 fc ff ff       	callq  400cb0 <signal@plt>
  4010ac:	48 c7 c6 24 1c 40 00 	mov    $0x401c24,%rsi
  4010b3:	bf 07 00 00 00       	mov    $0x7,%edi
  4010b8:	e8 f3 fb ff ff       	callq  400cb0 <signal@plt>
  4010bd:	48 c7 c6 cc 1c 40 00 	mov    $0x401ccc,%rsi
  4010c4:	bf 04 00 00 00       	mov    $0x4,%edi
  4010c9:	e8 e2 fb ff ff       	callq  400cb0 <signal@plt>
  4010ce:	83 3d 33 34 20 00 00 	cmpl   $0x0,0x203433(%rip)        # 604508 <is_checker>
  4010d5:	75 58                	jne    40112f <main+0xa2>
  4010d7:	48 8d 2d f7 1c 00 00 	lea    0x1cf7(%rip),%rbp        # 402dd5 <_IO_stdin_used+0x1e5>
  4010de:	48 8b 05 bb 33 20 00 	mov    0x2033bb(%rip),%rax        # 6044a0 <stdin@@GLIBC_2.2.5>
  4010e5:	48 89 05 04 34 20 00 	mov    %rax,0x203404(%rip)        # 6044f0 <infile>
  4010ec:	41 bd 00 00 00 00    	mov    $0x0,%r13d
  4010f2:	41 be 00 00 00 00    	mov    $0x0,%r14d
  4010f8:	48 89 ea             	mov    %rbp,%rdx
  4010fb:	48 89 de             	mov    %rbx,%rsi
  4010fe:	44 89 e7             	mov    %r12d,%edi
  401101:	e8 6a fc ff ff       	callq  400d70 <getopt@plt>
  401106:	3c ff                	cmp    $0xff,%al
  401108:	0f 84 f8 00 00 00    	je     401206 <main+0x179>
  40110e:	0f be f0             	movsbl %al,%esi
  401111:	83 e8 61             	sub    $0x61,%eax
  401114:	3c 10                	cmp    $0x10,%al
  401116:	0f 87 d1 00 00 00    	ja     4011ed <main+0x160>
  40111c:	0f b6 c0             	movzbl %al,%eax
  40111f:	48 8d 15 fa 1c 00 00 	lea    0x1cfa(%rip),%rdx        # 402e20 <_IO_stdin_used+0x230>
  401126:	48 63 04 82          	movslq (%rdx,%rax,4),%rax
  40112a:	48 01 d0             	add    %rdx,%rax
  40112d:	ff e0                	jmpq   *%rax
  40112f:	48 c7 c6 20 1d 40 00 	mov    $0x401d20,%rsi
  401136:	bf 0e 00 00 00       	mov    $0xe,%edi
  40113b:	e8 70 fb ff ff       	callq  400cb0 <signal@plt>
  401140:	bf 05 00 00 00       	mov    $0x5,%edi
  401145:	e8 36 fb ff ff       	callq  400c80 <alarm@plt>
  40114a:	48 8d 2d 89 1c 00 00 	lea    0x1c89(%rip),%rbp        # 402dda <_IO_stdin_used+0x1ea>
  401151:	eb 8b                	jmp    4010de <main+0x51>
  401153:	48 8b 3b             	mov    (%rbx),%rdi
  401156:	e8 7b fd ff ff       	callq  400ed6 <usage>
  40115b:	48 8d 35 03 1f 00 00 	lea    0x1f03(%rip),%rsi        # 403065 <_IO_stdin_used+0x475>
  401162:	48 8b 3d 3f 33 20 00 	mov    0x20333f(%rip),%rdi        # 6044a8 <optarg@@GLIBC_2.2.5>
  401169:	e8 f2 fb ff ff       	callq  400d60 <fopen@plt>
  40116e:	48 89 05 7b 33 20 00 	mov    %rax,0x20337b(%rip)        # 6044f0 <infile>
  401175:	48 85 c0             	test   %rax,%rax
  401178:	0f 85 7a ff ff ff    	jne    4010f8 <main+0x6b>
  40117e:	48 8b 15 23 33 20 00 	mov    0x203323(%rip),%rdx        # 6044a8 <optarg@@GLIBC_2.2.5>
  401185:	48 8d 35 56 1c 00 00 	lea    0x1c56(%rip),%rsi        # 402de2 <_IO_stdin_used+0x1f2>
  40118c:	48 8b 3d 2d 33 20 00 	mov    0x20332d(%rip),%rdi        # 6044c0 <stderr@@GLIBC_2.2.5>
  401193:	e8 38 fb ff ff       	callq  400cd0 <fprintf@plt>
  401198:	b8 01 00 00 00       	mov    $0x1,%eax
  40119d:	e9 c9 00 00 00       	jmpq   40126b <main+0x1de>
  4011a2:	ba 10 00 00 00       	mov    $0x10,%edx
  4011a7:	be 00 00 00 00       	mov    $0x0,%esi
  4011ac:	48 8b 3d f5 32 20 00 	mov    0x2032f5(%rip),%rdi        # 6044a8 <optarg@@GLIBC_2.2.5>
  4011b3:	e8 c8 fb ff ff       	callq  400d80 <strtoul@plt>
  4011b8:	41 89 c6             	mov    %eax,%r14d
  4011bb:	e9 38 ff ff ff       	jmpq   4010f8 <main+0x6b>
  4011c0:	ba 0a 00 00 00       	mov    $0xa,%edx
  4011c5:	be 00 00 00 00       	mov    $0x0,%esi
  4011ca:	48 8b 3d d7 32 20 00 	mov    0x2032d7(%rip),%rdi        # 6044a8 <optarg@@GLIBC_2.2.5>
  4011d1:	e8 0a fb ff ff       	callq  400ce0 <strtol@plt>
  4011d6:	41 89 c5             	mov    %eax,%r13d
  4011d9:	e9 1a ff ff ff       	jmpq   4010f8 <main+0x6b>
  4011de:	c7 05 a0 32 20 00 00 	movl   $0x0,0x2032a0(%rip)        # 604488 <notify>
  4011e5:	00 00 00 
  4011e8:	e9 0b ff ff ff       	jmpq   4010f8 <main+0x6b>
  4011ed:	48 8d 3d 0b 1c 00 00 	lea    0x1c0b(%rip),%rdi        # 402dff <_IO_stdin_used+0x20f>
  4011f4:	b8 00 00 00 00       	mov    $0x0,%eax
  4011f9:	e8 62 fa ff ff       	callq  400c60 <printf@plt>
  4011fe:	48 8b 3b             	mov    (%rbx),%rdi
  401201:	e8 d0 fc ff ff       	callq  400ed6 <usage>
  401206:	be 00 00 00 00       	mov    $0x0,%esi
  40120b:	44 89 ef             	mov    %r13d,%edi
  40120e:	e8 55 fd ff ff       	callq  400f68 <initialize_target>
  401213:	83 3d ee 32 20 00 00 	cmpl   $0x0,0x2032ee(%rip)        # 604508 <is_checker>
  40121a:	74 27                	je     401243 <main+0x1b6>
  40121c:	44 3b 35 dd 32 20 00 	cmp    0x2032dd(%rip),%r14d        # 604500 <authkey>
  401223:	74 1e                	je     401243 <main+0x1b6>
  401225:	44 89 f6             	mov    %r14d,%esi
  401228:	48 8d 3d 09 1b 00 00 	lea    0x1b09(%rip),%rdi        # 402d38 <_IO_stdin_used+0x148>
  40122f:	b8 00 00 00 00       	mov    $0x0,%eax
  401234:	e8 27 fa ff ff       	callq  400c60 <printf@plt>
  401239:	b8 00 00 00 00       	mov    $0x0,%eax
  40123e:	e8 b1 06 00 00       	callq  4018f4 <check_fail>
  401243:	8b 35 bb 32 20 00    	mov    0x2032bb(%rip),%esi        # 604504 <cookie>
  401249:	48 8d 3d c2 1b 00 00 	lea    0x1bc2(%rip),%rdi        # 402e12 <_IO_stdin_used+0x222>
  401250:	b8 00 00 00 00       	mov    $0x0,%eax
  401255:	e8 06 fa ff ff       	callq  400c60 <printf@plt>
  40125a:	48 8b 3d 1f 32 20 00 	mov    0x20321f(%rip),%rdi        # 604480 <buf_offset>
  401261:	e8 95 0b 00 00       	callq  401dfb <stable_launch>
  401266:	b8 00 00 00 00       	mov    $0x0,%eax
  40126b:	5b                   	pop    %rbx
  40126c:	5d                   	pop    %rbp
  40126d:	41 5c                	pop    %r12
  40126f:	41 5d                	pop    %r13
  401271:	41 5e                	pop    %r14
  401273:	c3                   	retq   

0000000000401274 <scramble>:
  401274:	b8 00 00 00 00       	mov    $0x0,%eax
  401279:	eb 11                	jmp    40128c <scramble+0x18>
  40127b:	69 d0 17 49 00 00    	imul   $0x4917,%eax,%edx
  401281:	01 fa                	add    %edi,%edx
  401283:	89 c1                	mov    %eax,%ecx
  401285:	89 54 8c d0          	mov    %edx,-0x30(%rsp,%rcx,4)
  401289:	83 c0 01             	add    $0x1,%eax
  40128c:	83 f8 09             	cmp    $0x9,%eax
  40128f:	76 ea                	jbe    40127b <scramble+0x7>
  401291:	8b 44 24 e8          	mov    -0x18(%rsp),%eax
  401295:	69 c0 0c 85 00 00    	imul   $0x850c,%eax,%eax
  40129b:	89 44 24 e8          	mov    %eax,-0x18(%rsp)
  40129f:	8b 44 24 dc          	mov    -0x24(%rsp),%eax
  4012a3:	69 c0 54 90 00 00    	imul   $0x9054,%eax,%eax
  4012a9:	89 44 24 dc          	mov    %eax,-0x24(%rsp)
  4012ad:	8b 44 24 f0          	mov    -0x10(%rsp),%eax
  4012b1:	69 c0 46 c3 00 00    	imul   $0xc346,%eax,%eax
  4012b7:	89 44 24 f0          	mov    %eax,-0x10(%rsp)
  4012bb:	8b 44 24 f4          	mov    -0xc(%rsp),%eax
  4012bf:	69 c0 94 9b 00 00    	imul   $0x9b94,%eax,%eax
  4012c5:	89 44 24 f4          	mov    %eax,-0xc(%rsp)
  4012c9:	8b 44 24 e8          	mov    -0x18(%rsp),%eax
  4012cd:	69 c0 e7 90 00 00    	imul   $0x90e7,%eax,%eax
  4012d3:	89 44 24 e8          	mov    %eax,-0x18(%rsp)
  4012d7:	8b 44 24 dc          	mov    -0x24(%rsp),%eax
  4012db:	69 c0 ec de 00 00    	imul   $0xdeec,%eax,%eax
  4012e1:	89 44 24 dc          	mov    %eax,-0x24(%rsp)
  4012e5:	8b 44 24 d8          	mov    -0x28(%rsp),%eax
  4012e9:	69 c0 f5 7f 00 00    	imul   $0x7ff5,%eax,%eax
  4012ef:	89 44 24 d8          	mov    %eax,-0x28(%rsp)
  4012f3:	8b 44 24 d0          	mov    -0x30(%rsp),%eax
  4012f7:	69 c0 16 1c 00 00    	imul   $0x1c16,%eax,%eax
  4012fd:	89 44 24 d0          	mov    %eax,-0x30(%rsp)
  401301:	8b 44 24 dc          	mov    -0x24(%rsp),%eax
  401305:	69 c0 51 50 00 00    	imul   $0x5051,%eax,%eax
  40130b:	89 44 24 dc          	mov    %eax,-0x24(%rsp)
  40130f:	8b 44 24 dc          	mov    -0x24(%rsp),%eax
  401313:	69 c0 39 82 00 00    	imul   $0x8239,%eax,%eax
  401319:	89 44 24 dc          	mov    %eax,-0x24(%rsp)
  40131d:	8b 44 24 ec          	mov    -0x14(%rsp),%eax
  401321:	69 c0 8b cf 00 00    	imul   $0xcf8b,%eax,%eax
  401327:	89 44 24 ec          	mov    %eax,-0x14(%rsp)
  40132b:	8b 44 24 dc          	mov    -0x24(%rsp),%eax
  40132f:	69 c0 0d 34 00 00    	imul   $0x340d,%eax,%eax
  401335:	89 44 24 dc          	mov    %eax,-0x24(%rsp)
  401339:	8b 44 24 f4          	mov    -0xc(%rsp),%eax
  40133d:	69 c0 82 5d 00 00    	imul   $0x5d82,%eax,%eax
  401343:	89 44 24 f4          	mov    %eax,-0xc(%rsp)
  401347:	8b 44 24 f4          	mov    -0xc(%rsp),%eax
  40134b:	69 c0 1a ca 00 00    	imul   $0xca1a,%eax,%eax
  401351:	89 44 24 f4          	mov    %eax,-0xc(%rsp)
  401355:	8b 44 24 dc          	mov    -0x24(%rsp),%eax
  401359:	69 c0 a0 06 00 00    	imul   $0x6a0,%eax,%eax
  40135f:	89 44 24 dc          	mov    %eax,-0x24(%rsp)
  401363:	8b 44 24 d8          	mov    -0x28(%rsp),%eax
  401367:	69 c0 ba 83 00 00    	imul   $0x83ba,%eax,%eax
  40136d:	89 44 24 d8          	mov    %eax,-0x28(%rsp)
  401371:	8b 44 24 f0          	mov    -0x10(%rsp),%eax
  401375:	69 c0 1d 21 00 00    	imul   $0x211d,%eax,%eax
  40137b:	89 44 24 f0          	mov    %eax,-0x10(%rsp)
  40137f:	8b 44 24 dc          	mov    -0x24(%rsp),%eax
  401383:	69 c0 38 2b 00 00    	imul   $0x2b38,%eax,%eax
  401389:	89 44 24 dc          	mov    %eax,-0x24(%rsp)
  40138d:	8b 44 24 e8          	mov    -0x18(%rsp),%eax
  401391:	69 c0 fe db 00 00    	imul   $0xdbfe,%eax,%eax
  401397:	89 44 24 e8          	mov    %eax,-0x18(%rsp)
  40139b:	8b 44 24 e4          	mov    -0x1c(%rsp),%eax
  40139f:	69 c0 d5 13 00 00    	imul   $0x13d5,%eax,%eax
  4013a5:	89 44 24 e4          	mov    %eax,-0x1c(%rsp)
  4013a9:	8b 44 24 ec          	mov    -0x14(%rsp),%eax
  4013ad:	69 c0 d4 2c 00 00    	imul   $0x2cd4,%eax,%eax
  4013b3:	89 44 24 ec          	mov    %eax,-0x14(%rsp)
  4013b7:	8b 44 24 e0          	mov    -0x20(%rsp),%eax
  4013bb:	69 c0 5b 5b 00 00    	imul   $0x5b5b,%eax,%eax
  4013c1:	89 44 24 e0          	mov    %eax,-0x20(%rsp)
  4013c5:	8b 44 24 e4          	mov    -0x1c(%rsp),%eax
  4013c9:	69 c0 45 22 00 00    	imul   $0x2245,%eax,%eax
  4013cf:	89 44 24 e4          	mov    %eax,-0x1c(%rsp)
  4013d3:	8b 44 24 dc          	mov    -0x24(%rsp),%eax
  4013d7:	69 c0 66 a9 00 00    	imul   $0xa966,%eax,%eax
  4013dd:	89 44 24 dc          	mov    %eax,-0x24(%rsp)
  4013e1:	8b 44 24 e4          	mov    -0x1c(%rsp),%eax
  4013e5:	69 c0 c2 3a 00 00    	imul   $0x3ac2,%eax,%eax
  4013eb:	89 44 24 e4          	mov    %eax,-0x1c(%rsp)
  4013ef:	8b 44 24 d4          	mov    -0x2c(%rsp),%eax
  4013f3:	69 c0 42 7c 00 00    	imul   $0x7c42,%eax,%eax
  4013f9:	89 44 24 d4          	mov    %eax,-0x2c(%rsp)
  4013fd:	8b 44 24 dc          	mov    -0x24(%rsp),%eax
  401401:	69 c0 0c 20 00 00    	imul   $0x200c,%eax,%eax
  401407:	89 44 24 dc          	mov    %eax,-0x24(%rsp)
  40140b:	8b 44 24 f0          	mov    -0x10(%rsp),%eax
  40140f:	69 c0 d9 73 00 00    	imul   $0x73d9,%eax,%eax
  401415:	89 44 24 f0          	mov    %eax,-0x10(%rsp)
  401419:	8b 44 24 e4          	mov    -0x1c(%rsp),%eax
  40141d:	69 c0 1a 8b 00 00    	imul   $0x8b1a,%eax,%eax
  401423:	89 44 24 e4          	mov    %eax,-0x1c(%rsp)
  401427:	8b 44 24 dc          	mov    -0x24(%rsp),%eax
  40142b:	69 c0 31 b8 00 00    	imul   $0xb831,%eax,%eax
  401431:	89 44 24 dc          	mov    %eax,-0x24(%rsp)
  401435:	8b 44 24 e4          	mov    -0x1c(%rsp),%eax
  401439:	69 c0 fc a8 00 00    	imul   $0xa8fc,%eax,%eax
  40143f:	89 44 24 e4          	mov    %eax,-0x1c(%rsp)
  401443:	8b 44 24 f4          	mov    -0xc(%rsp),%eax
  401447:	69 c0 67 1d 00 00    	imul   $0x1d67,%eax,%eax
  40144d:	89 44 24 f4          	mov    %eax,-0xc(%rsp)
  401451:	8b 44 24 dc          	mov    -0x24(%rsp),%eax
  401455:	69 c0 f9 4f 00 00    	imul   $0x4ff9,%eax,%eax
  40145b:	89 44 24 dc          	mov    %eax,-0x24(%rsp)
  40145f:	8b 44 24 e0          	mov    -0x20(%rsp),%eax
  401463:	69 c0 7c ae 00 00    	imul   $0xae7c,%eax,%eax
  401469:	89 44 24 e0          	mov    %eax,-0x20(%rsp)
  40146d:	8b 44 24 ec          	mov    -0x14(%rsp),%eax
  401471:	69 c0 6b 0f 00 00    	imul   $0xf6b,%eax,%eax
  401477:	89 44 24 ec          	mov    %eax,-0x14(%rsp)
  40147b:	8b 44 24 e0          	mov    -0x20(%rsp),%eax
  40147f:	69 c0 dd 98 00 00    	imul   $0x98dd,%eax,%eax
  401485:	89 44 24 e0          	mov    %eax,-0x20(%rsp)
  401489:	8b 44 24 d0          	mov    -0x30(%rsp),%eax
  40148d:	69 c0 13 b5 00 00    	imul   $0xb513,%eax,%eax
  401493:	89 44 24 d0          	mov    %eax,-0x30(%rsp)
  401497:	8b 44 24 f0          	mov    -0x10(%rsp),%eax
  40149b:	69 c0 0a e9 00 00    	imul   $0xe90a,%eax,%eax
  4014a1:	89 44 24 f0          	mov    %eax,-0x10(%rsp)
  4014a5:	8b 44 24 d8          	mov    -0x28(%rsp),%eax
  4014a9:	69 c0 aa 6b 00 00    	imul   $0x6baa,%eax,%eax
  4014af:	89 44 24 d8          	mov    %eax,-0x28(%rsp)
  4014b3:	8b 44 24 e8          	mov    -0x18(%rsp),%eax
  4014b7:	69 c0 ef 49 00 00    	imul   $0x49ef,%eax,%eax
  4014bd:	89 44 24 e8          	mov    %eax,-0x18(%rsp)
  4014c1:	8b 44 24 ec          	mov    -0x14(%rsp),%eax
  4014c5:	69 c0 10 be 00 00    	imul   $0xbe10,%eax,%eax
  4014cb:	89 44 24 ec          	mov    %eax,-0x14(%rsp)
  4014cf:	8b 44 24 e0          	mov    -0x20(%rsp),%eax
  4014d3:	69 c0 ba b0 00 00    	imul   $0xb0ba,%eax,%eax
  4014d9:	89 44 24 e0          	mov    %eax,-0x20(%rsp)
  4014dd:	8b 44 24 ec          	mov    -0x14(%rsp),%eax
  4014e1:	69 c0 81 76 00 00    	imul   $0x7681,%eax,%eax
  4014e7:	89 44 24 ec          	mov    %eax,-0x14(%rsp)
  4014eb:	8b 44 24 ec          	mov    -0x14(%rsp),%eax
  4014ef:	69 c0 ab 5b 00 00    	imul   $0x5bab,%eax,%eax
  4014f5:	89 44 24 ec          	mov    %eax,-0x14(%rsp)
  4014f9:	8b 44 24 e0          	mov    -0x20(%rsp),%eax
  4014fd:	69 c0 86 62 00 00    	imul   $0x6286,%eax,%eax
  401503:	89 44 24 e0          	mov    %eax,-0x20(%rsp)
  401507:	8b 44 24 e0          	mov    -0x20(%rsp),%eax
  40150b:	69 c0 56 93 00 00    	imul   $0x9356,%eax,%eax
  401511:	89 44 24 e0          	mov    %eax,-0x20(%rsp)
  401515:	8b 44 24 f0          	mov    -0x10(%rsp),%eax
  401519:	69 c0 c8 4f 00 00    	imul   $0x4fc8,%eax,%eax
  40151f:	89 44 24 f0          	mov    %eax,-0x10(%rsp)
  401523:	8b 44 24 e4          	mov    -0x1c(%rsp),%eax
  401527:	69 c0 9b d5 00 00    	imul   $0xd59b,%eax,%eax
  40152d:	89 44 24 e4          	mov    %eax,-0x1c(%rsp)
  401531:	8b 44 24 ec          	mov    -0x14(%rsp),%eax
  401535:	69 c0 5d f9 00 00    	imul   $0xf95d,%eax,%eax
  40153b:	89 44 24 ec          	mov    %eax,-0x14(%rsp)
  40153f:	8b 44 24 e4          	mov    -0x1c(%rsp),%eax
  401543:	69 c0 b9 cb 00 00    	imul   $0xcbb9,%eax,%eax
  401549:	89 44 24 e4          	mov    %eax,-0x1c(%rsp)
  40154d:	8b 44 24 d4          	mov    -0x2c(%rsp),%eax
  401551:	69 c0 69 46 00 00    	imul   $0x4669,%eax,%eax
  401557:	89 44 24 d4          	mov    %eax,-0x2c(%rsp)
  40155b:	8b 44 24 e0          	mov    -0x20(%rsp),%eax
  40155f:	69 c0 09 45 00 00    	imul   $0x4509,%eax,%eax
  401565:	89 44 24 e0          	mov    %eax,-0x20(%rsp)
  401569:	8b 44 24 f4          	mov    -0xc(%rsp),%eax
  40156d:	69 c0 cf 58 00 00    	imul   $0x58cf,%eax,%eax
  401573:	89 44 24 f4          	mov    %eax,-0xc(%rsp)
  401577:	8b 44 24 f4          	mov    -0xc(%rsp),%eax
  40157b:	69 c0 d4 d2 00 00    	imul   $0xd2d4,%eax,%eax
  401581:	89 44 24 f4          	mov    %eax,-0xc(%rsp)
  401585:	8b 44 24 e8          	mov    -0x18(%rsp),%eax
  401589:	69 c0 83 c0 00 00    	imul   $0xc083,%eax,%eax
  40158f:	89 44 24 e8          	mov    %eax,-0x18(%rsp)
  401593:	8b 44 24 dc          	mov    -0x24(%rsp),%eax
  401597:	69 c0 e6 6a 00 00    	imul   $0x6ae6,%eax,%eax
  40159d:	89 44 24 dc          	mov    %eax,-0x24(%rsp)
  4015a1:	8b 44 24 f0          	mov    -0x10(%rsp),%eax
  4015a5:	69 c0 f5 e2 00 00    	imul   $0xe2f5,%eax,%eax
  4015ab:	89 44 24 f0          	mov    %eax,-0x10(%rsp)
  4015af:	8b 44 24 f0          	mov    -0x10(%rsp),%eax
  4015b3:	69 c0 b0 5c 00 00    	imul   $0x5cb0,%eax,%eax
  4015b9:	89 44 24 f0          	mov    %eax,-0x10(%rsp)
  4015bd:	8b 44 24 dc          	mov    -0x24(%rsp),%eax
  4015c1:	69 c0 33 40 00 00    	imul   $0x4033,%eax,%eax
  4015c7:	89 44 24 dc          	mov    %eax,-0x24(%rsp)
  4015cb:	8b 44 24 d4          	mov    -0x2c(%rsp),%eax
  4015cf:	69 c0 12 5b 00 00    	imul   $0x5b12,%eax,%eax
  4015d5:	89 44 24 d4          	mov    %eax,-0x2c(%rsp)
  4015d9:	8b 44 24 f0          	mov    -0x10(%rsp),%eax
  4015dd:	69 c0 37 cc 00 00    	imul   $0xcc37,%eax,%eax
  4015e3:	89 44 24 f0          	mov    %eax,-0x10(%rsp)
  4015e7:	8b 44 24 f4          	mov    -0xc(%rsp),%eax
  4015eb:	69 c0 3b ae 00 00    	imul   $0xae3b,%eax,%eax
  4015f1:	89 44 24 f4          	mov    %eax,-0xc(%rsp)
  4015f5:	8b 44 24 d0          	mov    -0x30(%rsp),%eax
  4015f9:	69 c0 26 9f 00 00    	imul   $0x9f26,%eax,%eax
  4015ff:	89 44 24 d0          	mov    %eax,-0x30(%rsp)
  401603:	8b 44 24 d8          	mov    -0x28(%rsp),%eax
  401607:	69 c0 c1 bb 00 00    	imul   $0xbbc1,%eax,%eax
  40160d:	89 44 24 d8          	mov    %eax,-0x28(%rsp)
  401611:	8b 44 24 e0          	mov    -0x20(%rsp),%eax
  401615:	69 c0 ed 07 00 00    	imul   $0x7ed,%eax,%eax
  40161b:	89 44 24 e0          	mov    %eax,-0x20(%rsp)
  40161f:	8b 44 24 e8          	mov    -0x18(%rsp),%eax
  401623:	69 c0 4d a1 00 00    	imul   $0xa14d,%eax,%eax
  401629:	89 44 24 e8          	mov    %eax,-0x18(%rsp)
  40162d:	8b 44 24 d0          	mov    -0x30(%rsp),%eax
  401631:	69 c0 11 ec 00 00    	imul   $0xec11,%eax,%eax
  401637:	89 44 24 d0          	mov    %eax,-0x30(%rsp)
  40163b:	8b 44 24 f4          	mov    -0xc(%rsp),%eax
  40163f:	69 c0 d2 49 00 00    	imul   $0x49d2,%eax,%eax
  401645:	89 44 24 f4          	mov    %eax,-0xc(%rsp)
  401649:	8b 44 24 ec          	mov    -0x14(%rsp),%eax
  40164d:	69 c0 69 14 00 00    	imul   $0x1469,%eax,%eax
  401653:	89 44 24 ec          	mov    %eax,-0x14(%rsp)
  401657:	8b 44 24 e0          	mov    -0x20(%rsp),%eax
  40165b:	69 c0 5a 09 00 00    	imul   $0x95a,%eax,%eax
  401661:	89 44 24 e0          	mov    %eax,-0x20(%rsp)
  401665:	8b 44 24 e8          	mov    -0x18(%rsp),%eax
  401669:	69 c0 6b 39 00 00    	imul   $0x396b,%eax,%eax
  40166f:	89 44 24 e8          	mov    %eax,-0x18(%rsp)
  401673:	8b 44 24 f0          	mov    -0x10(%rsp),%eax
  401677:	69 c0 80 53 00 00    	imul   $0x5380,%eax,%eax
  40167d:	89 44 24 f0          	mov    %eax,-0x10(%rsp)
  401681:	8b 44 24 d0          	mov    -0x30(%rsp),%eax
  401685:	69 c0 e0 8f 00 00    	imul   $0x8fe0,%eax,%eax
  40168b:	89 44 24 d0          	mov    %eax,-0x30(%rsp)
  40168f:	8b 44 24 d4          	mov    -0x2c(%rsp),%eax
  401693:	69 c0 d7 75 00 00    	imul   $0x75d7,%eax,%eax
  401699:	89 44 24 d4          	mov    %eax,-0x2c(%rsp)
  40169d:	8b 44 24 ec          	mov    -0x14(%rsp),%eax
  4016a1:	69 c0 8b 68 00 00    	imul   $0x688b,%eax,%eax
  4016a7:	89 44 24 ec          	mov    %eax,-0x14(%rsp)
  4016ab:	8b 44 24 d8          	mov    -0x28(%rsp),%eax
  4016af:	69 c0 cc 72 00 00    	imul   $0x72cc,%eax,%eax
  4016b5:	89 44 24 d8          	mov    %eax,-0x28(%rsp)
  4016b9:	ba 00 00 00 00       	mov    $0x0,%edx
  4016be:	b8 00 00 00 00       	mov    $0x0,%eax
  4016c3:	eb 0b                	jmp    4016d0 <scramble+0x45c>
  4016c5:	89 d1                	mov    %edx,%ecx
  4016c7:	8b 4c 8c d0          	mov    -0x30(%rsp,%rcx,4),%ecx
  4016cb:	01 c8                	add    %ecx,%eax
  4016cd:	83 c2 01             	add    $0x1,%edx
  4016d0:	83 fa 09             	cmp    $0x9,%edx
  4016d3:	76 f0                	jbe    4016c5 <scramble+0x451>
  4016d5:	f3 c3                	repz retq 

00000000004016d7 <getbuf>:
  4016d7:	48 83 ec 28          	sub    $0x28,%rsp
  4016db:	48 89 e7             	mov    %rsp,%rdi
  4016de:	e8 44 02 00 00       	callq  401927 <Gets>
  4016e3:	b8 01 00 00 00       	mov    $0x1,%eax
  4016e8:	48 83 c4 28          	add    $0x28,%rsp
  4016ec:	c3                   	retq   

00000000004016ed <touch1>:
  4016ed:	48 83 ec 08          	sub    $0x8,%rsp
  4016f1:	c7 05 01 2e 20 00 01 	movl   $0x1,0x202e01(%rip)        # 6044fc <vlevel>
  4016f8:	00 00 00 
  4016fb:	48 8d 3d b9 17 00 00 	lea    0x17b9(%rip),%rdi        # 402ebb <_IO_stdin_used+0x2cb>
  401702:	e8 29 f5 ff ff       	callq  400c30 <puts@plt>
  401707:	bf 01 00 00 00       	mov    $0x1,%edi
  40170c:	e8 2d 04 00 00       	callq  401b3e <validate>
  401711:	bf 00 00 00 00       	mov    $0x0,%edi
  401716:	e8 95 f6 ff ff       	callq  400db0 <exit@plt>

000000000040171b <touch2>:
  40171b:	48 83 ec 08          	sub    $0x8,%rsp
  40171f:	89 fe                	mov    %edi,%esi
  401721:	c7 05 d1 2d 20 00 02 	movl   $0x2,0x202dd1(%rip)        # 6044fc <vlevel>
  401728:	00 00 00 
  40172b:	39 3d d3 2d 20 00    	cmp    %edi,0x202dd3(%rip)        # 604504 <cookie>
  401731:	74 25                	je     401758 <touch2+0x3d>
  401733:	48 8d 3d ce 17 00 00 	lea    0x17ce(%rip),%rdi        # 402f08 <_IO_stdin_used+0x318>
  40173a:	b8 00 00 00 00       	mov    $0x0,%eax
  40173f:	e8 1c f5 ff ff       	callq  400c60 <printf@plt>
  401744:	bf 02 00 00 00       	mov    $0x2,%edi
  401749:	e8 ae 04 00 00       	callq  401bfc <fail>
  40174e:	bf 00 00 00 00       	mov    $0x0,%edi
  401753:	e8 58 f6 ff ff       	callq  400db0 <exit@plt>
  401758:	48 8d 3d 81 17 00 00 	lea    0x1781(%rip),%rdi        # 402ee0 <_IO_stdin_used+0x2f0>
  40175f:	b8 00 00 00 00       	mov    $0x0,%eax
  401764:	e8 f7 f4 ff ff       	callq  400c60 <printf@plt>
  401769:	bf 02 00 00 00       	mov    $0x2,%edi
  40176e:	e8 cb 03 00 00       	callq  401b3e <validate>
  401773:	eb d9                	jmp    40174e <touch2+0x33>

0000000000401775 <hexmatch>:
  401775:	41 54                	push   %r12
  401777:	55                   	push   %rbp
  401778:	53                   	push   %rbx
  401779:	48 83 ec 70          	sub    $0x70,%rsp
  40177d:	89 fd                	mov    %edi,%ebp
  40177f:	48 89 f3             	mov    %rsi,%rbx
  401782:	e8 89 f5 ff ff       	callq  400d10 <random@plt>
  401787:	48 89 c1             	mov    %rax,%rcx
  40178a:	48 ba 0b d7 a3 70 3d 	movabs $0xa3d70a3d70a3d70b,%rdx
  401791:	0a d7 a3 
  401794:	48 f7 ea             	imul   %rdx
  401797:	48 01 ca             	add    %rcx,%rdx
  40179a:	48 c1 fa 06          	sar    $0x6,%rdx
  40179e:	48 89 c8             	mov    %rcx,%rax
  4017a1:	48 c1 f8 3f          	sar    $0x3f,%rax
  4017a5:	48 29 c2             	sub    %rax,%rdx
  4017a8:	48 8d 04 92          	lea    (%rdx,%rdx,4),%rax
  4017ac:	48 8d 14 80          	lea    (%rax,%rax,4),%rdx
  4017b0:	48 8d 04 95 00 00 00 	lea    0x0(,%rdx,4),%rax
  4017b7:	00 
  4017b8:	48 29 c1             	sub    %rax,%rcx
  4017bb:	4c 8d 24 0c          	lea    (%rsp,%rcx,1),%r12
  4017bf:	89 ea                	mov    %ebp,%edx
  4017c1:	48 8d 35 10 17 00 00 	lea    0x1710(%rip),%rsi        # 402ed8 <_IO_stdin_used+0x2e8>
  4017c8:	4c 89 e7             	mov    %r12,%rdi
  4017cb:	b8 00 00 00 00       	mov    $0x0,%eax
  4017d0:	e8 cb f5 ff ff       	callq  400da0 <sprintf@plt>
  4017d5:	ba 09 00 00 00       	mov    $0x9,%edx
  4017da:	4c 89 e6             	mov    %r12,%rsi
  4017dd:	48 89 df             	mov    %rbx,%rdi
  4017e0:	e8 2b f4 ff ff       	callq  400c10 <strncmp@plt>
  4017e5:	85 c0                	test   %eax,%eax
  4017e7:	0f 94 c0             	sete   %al
  4017ea:	0f b6 c0             	movzbl %al,%eax
  4017ed:	48 83 c4 70          	add    $0x70,%rsp
  4017f1:	5b                   	pop    %rbx
  4017f2:	5d                   	pop    %rbp
  4017f3:	41 5c                	pop    %r12
  4017f5:	c3                   	retq   

00000000004017f6 <touch3>:
  4017f6:	53                   	push   %rbx
  4017f7:	48 89 fb             	mov    %rdi,%rbx
  4017fa:	c7 05 f8 2c 20 00 03 	movl   $0x3,0x202cf8(%rip)        # 6044fc <vlevel>
  401801:	00 00 00 
  401804:	48 89 fe             	mov    %rdi,%rsi
  401807:	8b 3d f7 2c 20 00    	mov    0x202cf7(%rip),%edi        # 604504 <cookie>
  40180d:	e8 63 ff ff ff       	callq  401775 <hexmatch>
  401812:	85 c0                	test   %eax,%eax
  401814:	74 28                	je     40183e <touch3+0x48>
  401816:	48 89 de             	mov    %rbx,%rsi
  401819:	48 8d 3d 10 17 00 00 	lea    0x1710(%rip),%rdi        # 402f30 <_IO_stdin_used+0x340>
  401820:	b8 00 00 00 00       	mov    $0x0,%eax
  401825:	e8 36 f4 ff ff       	callq  400c60 <printf@plt>
  40182a:	bf 03 00 00 00       	mov    $0x3,%edi
  40182f:	e8 0a 03 00 00       	callq  401b3e <validate>
  401834:	bf 00 00 00 00       	mov    $0x0,%edi
  401839:	e8 72 f5 ff ff       	callq  400db0 <exit@plt>
  40183e:	48 89 de             	mov    %rbx,%rsi
  401841:	48 8d 3d 10 17 00 00 	lea    0x1710(%rip),%rdi        # 402f58 <_IO_stdin_used+0x368>
  401848:	b8 00 00 00 00       	mov    $0x0,%eax
  40184d:	e8 0e f4 ff ff       	callq  400c60 <printf@plt>
  401852:	bf 03 00 00 00       	mov    $0x3,%edi
  401857:	e8 a0 03 00 00       	callq  401bfc <fail>
  40185c:	eb d6                	jmp    401834 <touch3+0x3e>

000000000040185e <test>:
  40185e:	48 83 ec 08          	sub    $0x8,%rsp
  401862:	b8 00 00 00 00       	mov    $0x0,%eax
  401867:	e8 6b fe ff ff       	callq  4016d7 <getbuf>
  40186c:	89 c6                	mov    %eax,%esi
  40186e:	48 8d 3d 0b 17 00 00 	lea    0x170b(%rip),%rdi        # 402f80 <_IO_stdin_used+0x390>
  401875:	b8 00 00 00 00       	mov    $0x0,%eax
  40187a:	e8 e1 f3 ff ff       	callq  400c60 <printf@plt>
  40187f:	48 83 c4 08          	add    $0x8,%rsp
  401883:	c3                   	retq   

0000000000401884 <save_char>:
  401884:	8b 05 9a 38 20 00    	mov    0x20389a(%rip),%eax        # 605124 <gets_cnt>
  40188a:	3d ff 03 00 00       	cmp    $0x3ff,%eax
  40188f:	7f 4a                	jg     4018db <save_char+0x57>
  401891:	8d 14 40             	lea    (%rax,%rax,2),%edx
  401894:	89 f9                	mov    %edi,%ecx
  401896:	c0 e9 04             	shr    $0x4,%cl
  401899:	4c 8d 05 00 1a 00 00 	lea    0x1a00(%rip),%r8        # 4032a0 <trans_char>
  4018a0:	83 e1 0f             	and    $0xf,%ecx
  4018a3:	45 0f b6 0c 08       	movzbl (%r8,%rcx,1),%r9d
  4018a8:	48 8d 0d 71 2c 20 00 	lea    0x202c71(%rip),%rcx        # 604520 <gets_buf>
  4018af:	48 63 f2             	movslq %edx,%rsi
  4018b2:	44 88 0c 31          	mov    %r9b,(%rcx,%rsi,1)
  4018b6:	8d 72 01             	lea    0x1(%rdx),%esi
  4018b9:	83 e7 0f             	and    $0xf,%edi
  4018bc:	41 0f b6 3c 38       	movzbl (%r8,%rdi,1),%edi
  4018c1:	48 63 f6             	movslq %esi,%rsi
  4018c4:	40 88 3c 31          	mov    %dil,(%rcx,%rsi,1)
  4018c8:	83 c2 02             	add    $0x2,%edx
  4018cb:	48 63 d2             	movslq %edx,%rdx
  4018ce:	c6 04 11 20          	movb   $0x20,(%rcx,%rdx,1)
  4018d2:	83 c0 01             	add    $0x1,%eax
  4018d5:	89 05 49 38 20 00    	mov    %eax,0x203849(%rip)        # 605124 <gets_cnt>
  4018db:	f3 c3                	repz retq 

00000000004018dd <save_term>:
  4018dd:	8b 05 41 38 20 00    	mov    0x203841(%rip),%eax        # 605124 <gets_cnt>
  4018e3:	8d 04 40             	lea    (%rax,%rax,2),%eax
  4018e6:	48 98                	cltq   
  4018e8:	48 8d 15 31 2c 20 00 	lea    0x202c31(%rip),%rdx        # 604520 <gets_buf>
  4018ef:	c6 04 02 00          	movb   $0x0,(%rdx,%rax,1)
  4018f3:	c3                   	retq   

00000000004018f4 <check_fail>:
  4018f4:	48 83 ec 08          	sub    $0x8,%rsp
  4018f8:	0f be 35 29 38 20 00 	movsbl 0x203829(%rip),%esi        # 605128 <target_prefix>
  4018ff:	48 8d 0d 1a 2c 20 00 	lea    0x202c1a(%rip),%rcx        # 604520 <gets_buf>
  401906:	8b 15 ec 2b 20 00    	mov    0x202bec(%rip),%edx        # 6044f8 <check_level>
  40190c:	48 8d 3d 90 16 00 00 	lea    0x1690(%rip),%rdi        # 402fa3 <_IO_stdin_used+0x3b3>
  401913:	b8 00 00 00 00       	mov    $0x0,%eax
  401918:	e8 43 f3 ff ff       	callq  400c60 <printf@plt>
  40191d:	bf 01 00 00 00       	mov    $0x1,%edi
  401922:	e8 89 f4 ff ff       	callq  400db0 <exit@plt>

0000000000401927 <Gets>:
  401927:	41 54                	push   %r12
  401929:	55                   	push   %rbp
  40192a:	53                   	push   %rbx
  40192b:	49 89 fc             	mov    %rdi,%r12
  40192e:	c7 05 ec 37 20 00 00 	movl   $0x0,0x2037ec(%rip)        # 605124 <gets_cnt>
  401935:	00 00 00 
  401938:	48 89 fb             	mov    %rdi,%rbx
  40193b:	eb 11                	jmp    40194e <Gets+0x27>
  40193d:	48 8d 6b 01          	lea    0x1(%rbx),%rbp
  401941:	88 03                	mov    %al,(%rbx)
  401943:	0f b6 f8             	movzbl %al,%edi
  401946:	e8 39 ff ff ff       	callq  401884 <save_char>
  40194b:	48 89 eb             	mov    %rbp,%rbx
  40194e:	48 8b 3d 9b 2b 20 00 	mov    0x202b9b(%rip),%rdi        # 6044f0 <infile>
  401955:	e8 c6 f3 ff ff       	callq  400d20 <_IO_getc@plt>
  40195a:	83 f8 ff             	cmp    $0xffffffff,%eax
  40195d:	74 05                	je     401964 <Gets+0x3d>
  40195f:	83 f8 0a             	cmp    $0xa,%eax
  401962:	75 d9                	jne    40193d <Gets+0x16>
  401964:	c6 03 00             	movb   $0x0,(%rbx)
  401967:	b8 00 00 00 00       	mov    $0x0,%eax
  40196c:	e8 6c ff ff ff       	callq  4018dd <save_term>
  401971:	4c 89 e0             	mov    %r12,%rax
  401974:	5b                   	pop    %rbx
  401975:	5d                   	pop    %rbp
  401976:	41 5c                	pop    %r12
  401978:	c3                   	retq   

0000000000401979 <notify_server>:
  401979:	83 3d 88 2b 20 00 00 	cmpl   $0x0,0x202b88(%rip)        # 604508 <is_checker>
  401980:	0f 85 de 00 00 00    	jne    401a64 <notify_server+0xeb>
  401986:	55                   	push   %rbp
  401987:	53                   	push   %rbx
  401988:	48 81 ec 08 40 00 00 	sub    $0x4008,%rsp
  40198f:	89 fb                	mov    %edi,%ebx
  401991:	8b 05 8d 37 20 00    	mov    0x20378d(%rip),%eax        # 605124 <gets_cnt>
  401997:	83 c0 64             	add    $0x64,%eax
  40199a:	3d 00 20 00 00       	cmp    $0x2000,%eax
  40199f:	0f 8f c1 00 00 00    	jg     401a66 <notify_server+0xed>
  4019a5:	44 0f be 0d 7b 37 20 	movsbl 0x20377b(%rip),%r9d        # 605128 <target_prefix>
  4019ac:	00 
  4019ad:	83 3d d4 2a 20 00 00 	cmpl   $0x0,0x202ad4(%rip)        # 604488 <notify>
  4019b4:	0f 84 c7 00 00 00    	je     401a81 <notify_server+0x108>
  4019ba:	44 8b 05 3f 2b 20 00 	mov    0x202b3f(%rip),%r8d        # 604500 <authkey>
  4019c1:	85 db                	test   %ebx,%ebx
  4019c3:	0f 84 c3 00 00 00    	je     401a8c <notify_server+0x113>
  4019c9:	48 8d 2d e9 15 00 00 	lea    0x15e9(%rip),%rbp        # 402fb9 <_IO_stdin_used+0x3c9>
  4019d0:	48 8d bc 24 00 20 00 	lea    0x2000(%rsp),%rdi
  4019d7:	00 
  4019d8:	48 8d 05 41 2b 20 00 	lea    0x202b41(%rip),%rax        # 604520 <gets_buf>
  4019df:	50                   	push   %rax
  4019e0:	56                   	push   %rsi
  4019e1:	48 89 e9             	mov    %rbp,%rcx
  4019e4:	8b 15 46 27 20 00    	mov    0x202746(%rip),%edx        # 604130 <target_id>
  4019ea:	48 8d 35 d2 15 00 00 	lea    0x15d2(%rip),%rsi        # 402fc3 <_IO_stdin_used+0x3d3>
  4019f1:	b8 00 00 00 00       	mov    $0x0,%eax
  4019f6:	e8 a5 f3 ff ff       	callq  400da0 <sprintf@plt>
  4019fb:	48 83 c4 10          	add    $0x10,%rsp
  4019ff:	83 3d 82 2a 20 00 00 	cmpl   $0x0,0x202a82(%rip)        # 604488 <notify>
  401a06:	0f 84 b8 00 00 00    	je     401ac4 <notify_server+0x14b>
  401a0c:	85 db                	test   %ebx,%ebx
  401a0e:	0f 84 a2 00 00 00    	je     401ab6 <notify_server+0x13d>
  401a14:	48 8d 8c 24 00 20 00 	lea    0x2000(%rsp),%rcx
  401a1b:	00 
  401a1c:	49 89 e1             	mov    %rsp,%r9
  401a1f:	41 b8 00 00 00 00    	mov    $0x0,%r8d
  401a25:	48 8b 15 1c 27 20 00 	mov    0x20271c(%rip),%rdx        # 604148 <lab>
  401a2c:	48 8b 35 1d 27 20 00 	mov    0x20271d(%rip),%rsi        # 604150 <course>
  401a33:	48 8b 3d 06 27 20 00 	mov    0x202706(%rip),%rdi        # 604140 <user_id>
  401a3a:	e8 6e 10 00 00       	callq  402aad <driver_post>
  401a3f:	85 c0                	test   %eax,%eax
  401a41:	78 55                	js     401a98 <notify_server+0x11f>
  401a43:	48 8d 3d be 16 00 00 	lea    0x16be(%rip),%rdi        # 403108 <_IO_stdin_used+0x518>
  401a4a:	e8 e1 f1 ff ff       	callq  400c30 <puts@plt>
  401a4f:	48 8d 3d 95 15 00 00 	lea    0x1595(%rip),%rdi        # 402feb <_IO_stdin_used+0x3fb>
  401a56:	e8 d5 f1 ff ff       	callq  400c30 <puts@plt>
  401a5b:	48 81 c4 08 40 00 00 	add    $0x4008,%rsp
  401a62:	5b                   	pop    %rbx
  401a63:	5d                   	pop    %rbp
  401a64:	f3 c3                	repz retq 
  401a66:	48 8d 3d 6b 16 00 00 	lea    0x166b(%rip),%rdi        # 4030d8 <_IO_stdin_used+0x4e8>
  401a6d:	b8 00 00 00 00       	mov    $0x0,%eax
  401a72:	e8 e9 f1 ff ff       	callq  400c60 <printf@plt>
  401a77:	bf 01 00 00 00       	mov    $0x1,%edi
  401a7c:	e8 2f f3 ff ff       	callq  400db0 <exit@plt>
  401a81:	41 b8 ff ff ff ff    	mov    $0xffffffff,%r8d
  401a87:	e9 35 ff ff ff       	jmpq   4019c1 <notify_server+0x48>
  401a8c:	48 8d 2d 2b 15 00 00 	lea    0x152b(%rip),%rbp        # 402fbe <_IO_stdin_used+0x3ce>
  401a93:	e9 38 ff ff ff       	jmpq   4019d0 <notify_server+0x57>
  401a98:	48 89 e6             	mov    %rsp,%rsi
  401a9b:	48 8d 3d 3d 15 00 00 	lea    0x153d(%rip),%rdi        # 402fdf <_IO_stdin_used+0x3ef>
  401aa2:	b8 00 00 00 00       	mov    $0x0,%eax
  401aa7:	e8 b4 f1 ff ff       	callq  400c60 <printf@plt>
  401aac:	bf 01 00 00 00       	mov    $0x1,%edi
  401ab1:	e8 fa f2 ff ff       	callq  400db0 <exit@plt>
  401ab6:	48 8d 3d 38 15 00 00 	lea    0x1538(%rip),%rdi        # 402ff5 <_IO_stdin_used+0x405>
  401abd:	e8 6e f1 ff ff       	callq  400c30 <puts@plt>
  401ac2:	eb 97                	jmp    401a5b <notify_server+0xe2>
  401ac4:	48 89 ee             	mov    %rbp,%rsi
  401ac7:	48 8d 3d 72 16 00 00 	lea    0x1672(%rip),%rdi        # 403140 <_IO_stdin_used+0x550>
  401ace:	b8 00 00 00 00       	mov    $0x0,%eax
  401ad3:	e8 88 f1 ff ff       	callq  400c60 <printf@plt>
  401ad8:	48 8b 35 61 26 20 00 	mov    0x202661(%rip),%rsi        # 604140 <user_id>
  401adf:	48 8d 3d 16 15 00 00 	lea    0x1516(%rip),%rdi        # 402ffc <_IO_stdin_used+0x40c>
  401ae6:	b8 00 00 00 00       	mov    $0x0,%eax
  401aeb:	e8 70 f1 ff ff       	callq  400c60 <printf@plt>
  401af0:	48 8b 35 59 26 20 00 	mov    0x202659(%rip),%rsi        # 604150 <course>
  401af7:	48 8d 3d 0b 15 00 00 	lea    0x150b(%rip),%rdi        # 403009 <_IO_stdin_used+0x419>
  401afe:	b8 00 00 00 00       	mov    $0x0,%eax
  401b03:	e8 58 f1 ff ff       	callq  400c60 <printf@plt>
  401b08:	48 8b 35 39 26 20 00 	mov    0x202639(%rip),%rsi        # 604148 <lab>
  401b0f:	48 8d 3d ff 14 00 00 	lea    0x14ff(%rip),%rdi        # 403015 <_IO_stdin_used+0x425>
  401b16:	b8 00 00 00 00       	mov    $0x0,%eax
  401b1b:	e8 40 f1 ff ff       	callq  400c60 <printf@plt>
  401b20:	48 8d b4 24 00 20 00 	lea    0x2000(%rsp),%rsi
  401b27:	00 
  401b28:	48 8d 3d ef 14 00 00 	lea    0x14ef(%rip),%rdi        # 40301e <_IO_stdin_used+0x42e>
  401b2f:	b8 00 00 00 00       	mov    $0x0,%eax
  401b34:	e8 27 f1 ff ff       	callq  400c60 <printf@plt>
  401b39:	e9 1d ff ff ff       	jmpq   401a5b <notify_server+0xe2>

0000000000401b3e <validate>:
  401b3e:	53                   	push   %rbx
  401b3f:	89 fb                	mov    %edi,%ebx
  401b41:	83 3d c0 29 20 00 00 	cmpl   $0x0,0x2029c0(%rip)        # 604508 <is_checker>
  401b48:	74 68                	je     401bb2 <validate+0x74>
  401b4a:	39 3d ac 29 20 00    	cmp    %edi,0x2029ac(%rip)        # 6044fc <vlevel>
  401b50:	75 2d                	jne    401b7f <validate+0x41>
  401b52:	8b 35 a0 29 20 00    	mov    0x2029a0(%rip),%esi        # 6044f8 <check_level>
  401b58:	39 f7                	cmp    %esi,%edi
  401b5a:	75 39                	jne    401b95 <validate+0x57>
  401b5c:	0f be 35 c5 35 20 00 	movsbl 0x2035c5(%rip),%esi        # 605128 <target_prefix>
  401b63:	48 8d 0d b6 29 20 00 	lea    0x2029b6(%rip),%rcx        # 604520 <gets_buf>
  401b6a:	89 fa                	mov    %edi,%edx
  401b6c:	48 8d 3d d5 14 00 00 	lea    0x14d5(%rip),%rdi        # 403048 <_IO_stdin_used+0x458>
  401b73:	b8 00 00 00 00       	mov    $0x0,%eax
  401b78:	e8 e3 f0 ff ff       	callq  400c60 <printf@plt>
  401b7d:	5b                   	pop    %rbx
  401b7e:	c3                   	retq   
  401b7f:	48 8d 3d a4 14 00 00 	lea    0x14a4(%rip),%rdi        # 40302a <_IO_stdin_used+0x43a>
  401b86:	e8 a5 f0 ff ff       	callq  400c30 <puts@plt>
  401b8b:	b8 00 00 00 00       	mov    $0x0,%eax
  401b90:	e8 5f fd ff ff       	callq  4018f4 <check_fail>
  401b95:	89 fa                	mov    %edi,%edx
  401b97:	48 8d 3d ca 15 00 00 	lea    0x15ca(%rip),%rdi        # 403168 <_IO_stdin_used+0x578>
  401b9e:	b8 00 00 00 00       	mov    $0x0,%eax
  401ba3:	e8 b8 f0 ff ff       	callq  400c60 <printf@plt>
  401ba8:	b8 00 00 00 00       	mov    $0x0,%eax
  401bad:	e8 42 fd ff ff       	callq  4018f4 <check_fail>
  401bb2:	3b 3d 44 29 20 00    	cmp    0x202944(%rip),%edi        # 6044fc <vlevel>
  401bb8:	74 1a                	je     401bd4 <validate+0x96>
  401bba:	48 8d 3d 69 14 00 00 	lea    0x1469(%rip),%rdi        # 40302a <_IO_stdin_used+0x43a>
  401bc1:	e8 6a f0 ff ff       	callq  400c30 <puts@plt>
  401bc6:	89 de                	mov    %ebx,%esi
  401bc8:	bf 00 00 00 00       	mov    $0x0,%edi
  401bcd:	e8 a7 fd ff ff       	callq  401979 <notify_server>
  401bd2:	eb a9                	jmp    401b7d <validate+0x3f>
  401bd4:	0f be 15 4d 35 20 00 	movsbl 0x20354d(%rip),%edx        # 605128 <target_prefix>
  401bdb:	89 fe                	mov    %edi,%esi
  401bdd:	48 8d 3d ac 15 00 00 	lea    0x15ac(%rip),%rdi        # 403190 <_IO_stdin_used+0x5a0>
  401be4:	b8 00 00 00 00       	mov    $0x0,%eax
  401be9:	e8 72 f0 ff ff       	callq  400c60 <printf@plt>
  401bee:	89 de                	mov    %ebx,%esi
  401bf0:	bf 01 00 00 00       	mov    $0x1,%edi
  401bf5:	e8 7f fd ff ff       	callq  401979 <notify_server>
  401bfa:	eb 81                	jmp    401b7d <validate+0x3f>

0000000000401bfc <fail>:
  401bfc:	48 83 ec 08          	sub    $0x8,%rsp
  401c00:	83 3d 01 29 20 00 00 	cmpl   $0x0,0x202901(%rip)        # 604508 <is_checker>
  401c07:	75 11                	jne    401c1a <fail+0x1e>
  401c09:	89 fe                	mov    %edi,%esi
  401c0b:	bf 00 00 00 00       	mov    $0x0,%edi
  401c10:	e8 64 fd ff ff       	callq  401979 <notify_server>
  401c15:	48 83 c4 08          	add    $0x8,%rsp
  401c19:	c3                   	retq   
  401c1a:	b8 00 00 00 00       	mov    $0x0,%eax
  401c1f:	e8 d0 fc ff ff       	callq  4018f4 <check_fail>

0000000000401c24 <bushandler>:
  401c24:	48 83 ec 08          	sub    $0x8,%rsp
  401c28:	83 3d d9 28 20 00 00 	cmpl   $0x0,0x2028d9(%rip)        # 604508 <is_checker>
  401c2f:	74 16                	je     401c47 <bushandler+0x23>
  401c31:	48 8d 3d 25 14 00 00 	lea    0x1425(%rip),%rdi        # 40305d <_IO_stdin_used+0x46d>
  401c38:	e8 f3 ef ff ff       	callq  400c30 <puts@plt>
  401c3d:	b8 00 00 00 00       	mov    $0x0,%eax
  401c42:	e8 ad fc ff ff       	callq  4018f4 <check_fail>
  401c47:	48 8d 3d 7a 15 00 00 	lea    0x157a(%rip),%rdi        # 4031c8 <_IO_stdin_used+0x5d8>
  401c4e:	e8 dd ef ff ff       	callq  400c30 <puts@plt>
  401c53:	48 8d 3d 0d 14 00 00 	lea    0x140d(%rip),%rdi        # 403067 <_IO_stdin_used+0x477>
  401c5a:	e8 d1 ef ff ff       	callq  400c30 <puts@plt>
  401c5f:	be 00 00 00 00       	mov    $0x0,%esi
  401c64:	bf 00 00 00 00       	mov    $0x0,%edi
  401c69:	e8 0b fd ff ff       	callq  401979 <notify_server>
  401c6e:	bf 01 00 00 00       	mov    $0x1,%edi
  401c73:	e8 38 f1 ff ff       	callq  400db0 <exit@plt>

0000000000401c78 <seghandler>:
  401c78:	48 83 ec 08          	sub    $0x8,%rsp
  401c7c:	83 3d 85 28 20 00 00 	cmpl   $0x0,0x202885(%rip)        # 604508 <is_checker>
  401c83:	74 16                	je     401c9b <seghandler+0x23>
  401c85:	48 8d 3d f1 13 00 00 	lea    0x13f1(%rip),%rdi        # 40307d <_IO_stdin_used+0x48d>
  401c8c:	e8 9f ef ff ff       	callq  400c30 <puts@plt>
  401c91:	b8 00 00 00 00       	mov    $0x0,%eax
  401c96:	e8 59 fc ff ff       	callq  4018f4 <check_fail>
  401c9b:	48 8d 3d 46 15 00 00 	lea    0x1546(%rip),%rdi        # 4031e8 <_IO_stdin_used+0x5f8>
  401ca2:	e8 89 ef ff ff       	callq  400c30 <puts@plt>
  401ca7:	48 8d 3d b9 13 00 00 	lea    0x13b9(%rip),%rdi        # 403067 <_IO_stdin_used+0x477>
  401cae:	e8 7d ef ff ff       	callq  400c30 <puts@plt>
  401cb3:	be 00 00 00 00       	mov    $0x0,%esi
  401cb8:	bf 00 00 00 00       	mov    $0x0,%edi
  401cbd:	e8 b7 fc ff ff       	callq  401979 <notify_server>
  401cc2:	bf 01 00 00 00       	mov    $0x1,%edi
  401cc7:	e8 e4 f0 ff ff       	callq  400db0 <exit@plt>

0000000000401ccc <illegalhandler>:
  401ccc:	48 83 ec 08          	sub    $0x8,%rsp
  401cd0:	83 3d 31 28 20 00 00 	cmpl   $0x0,0x202831(%rip)        # 604508 <is_checker>
  401cd7:	74 16                	je     401cef <illegalhandler+0x23>
  401cd9:	48 8d 3d b0 13 00 00 	lea    0x13b0(%rip),%rdi        # 403090 <_IO_stdin_used+0x4a0>
  401ce0:	e8 4b ef ff ff       	callq  400c30 <puts@plt>
  401ce5:	b8 00 00 00 00       	mov    $0x0,%eax
  401cea:	e8 05 fc ff ff       	callq  4018f4 <check_fail>
  401cef:	48 8d 3d 1a 15 00 00 	lea    0x151a(%rip),%rdi        # 403210 <_IO_stdin_used+0x620>
  401cf6:	e8 35 ef ff ff       	callq  400c30 <puts@plt>
  401cfb:	48 8d 3d 65 13 00 00 	lea    0x1365(%rip),%rdi        # 403067 <_IO_stdin_used+0x477>
  401d02:	e8 29 ef ff ff       	callq  400c30 <puts@plt>
  401d07:	be 00 00 00 00       	mov    $0x0,%esi
  401d0c:	bf 00 00 00 00       	mov    $0x0,%edi
  401d11:	e8 63 fc ff ff       	callq  401979 <notify_server>
  401d16:	bf 01 00 00 00       	mov    $0x1,%edi
  401d1b:	e8 90 f0 ff ff       	callq  400db0 <exit@plt>

0000000000401d20 <sigalrmhandler>:
  401d20:	48 83 ec 08          	sub    $0x8,%rsp
  401d24:	83 3d dd 27 20 00 00 	cmpl   $0x0,0x2027dd(%rip)        # 604508 <is_checker>
  401d2b:	74 16                	je     401d43 <sigalrmhandler+0x23>
  401d2d:	48 8d 3d 70 13 00 00 	lea    0x1370(%rip),%rdi        # 4030a4 <_IO_stdin_used+0x4b4>
  401d34:	e8 f7 ee ff ff       	callq  400c30 <puts@plt>
  401d39:	b8 00 00 00 00       	mov    $0x0,%eax
  401d3e:	e8 b1 fb ff ff       	callq  4018f4 <check_fail>
  401d43:	be 05 00 00 00       	mov    $0x5,%esi
  401d48:	48 8d 3d f1 14 00 00 	lea    0x14f1(%rip),%rdi        # 403240 <_IO_stdin_used+0x650>
  401d4f:	b8 00 00 00 00       	mov    $0x0,%eax
  401d54:	e8 07 ef ff ff       	callq  400c60 <printf@plt>
  401d59:	be 00 00 00 00       	mov    $0x0,%esi
  401d5e:	bf 00 00 00 00       	mov    $0x0,%edi
  401d63:	e8 11 fc ff ff       	callq  401979 <notify_server>
  401d68:	bf 01 00 00 00       	mov    $0x1,%edi
  401d6d:	e8 3e f0 ff ff       	callq  400db0 <exit@plt>

0000000000401d72 <launch>:
  401d72:	55                   	push   %rbp
  401d73:	48 89 e5             	mov    %rsp,%rbp
  401d76:	48 89 fa             	mov    %rdi,%rdx
  401d79:	48 8d 47 1e          	lea    0x1e(%rdi),%rax
  401d7d:	48 83 e0 f0          	and    $0xfffffffffffffff0,%rax
  401d81:	48 29 c4             	sub    %rax,%rsp
  401d84:	48 8d 7c 24 0f       	lea    0xf(%rsp),%rdi
  401d89:	48 83 e7 f0          	and    $0xfffffffffffffff0,%rdi
  401d8d:	be f4 00 00 00       	mov    $0xf4,%esi
  401d92:	e8 d9 ee ff ff       	callq  400c70 <memset@plt>
  401d97:	48 8b 05 02 27 20 00 	mov    0x202702(%rip),%rax        # 6044a0 <stdin@@GLIBC_2.2.5>
  401d9e:	48 39 05 4b 27 20 00 	cmp    %rax,0x20274b(%rip)        # 6044f0 <infile>
  401da5:	74 2b                	je     401dd2 <launch+0x60>
  401da7:	c7 05 4b 27 20 00 00 	movl   $0x0,0x20274b(%rip)        # 6044fc <vlevel>
  401dae:	00 00 00 
  401db1:	b8 00 00 00 00       	mov    $0x0,%eax
  401db6:	e8 a3 fa ff ff       	callq  40185e <test>
  401dbb:	83 3d 46 27 20 00 00 	cmpl   $0x0,0x202746(%rip)        # 604508 <is_checker>
  401dc2:	75 21                	jne    401de5 <launch+0x73>
  401dc4:	48 8d 3d f9 12 00 00 	lea    0x12f9(%rip),%rdi        # 4030c4 <_IO_stdin_used+0x4d4>
  401dcb:	e8 60 ee ff ff       	callq  400c30 <puts@plt>
  401dd0:	c9                   	leaveq 
  401dd1:	c3                   	retq   
  401dd2:	48 8d 3d d3 12 00 00 	lea    0x12d3(%rip),%rdi        # 4030ac <_IO_stdin_used+0x4bc>
  401dd9:	b8 00 00 00 00       	mov    $0x0,%eax
  401dde:	e8 7d ee ff ff       	callq  400c60 <printf@plt>
  401de3:	eb c2                	jmp    401da7 <launch+0x35>
  401de5:	48 8d 3d cd 12 00 00 	lea    0x12cd(%rip),%rdi        # 4030b9 <_IO_stdin_used+0x4c9>
  401dec:	e8 3f ee ff ff       	callq  400c30 <puts@plt>
  401df1:	b8 00 00 00 00       	mov    $0x0,%eax
  401df6:	e8 f9 fa ff ff       	callq  4018f4 <check_fail>

0000000000401dfb <stable_launch>:
  401dfb:	53                   	push   %rbx
  401dfc:	48 89 3d e5 26 20 00 	mov    %rdi,0x2026e5(%rip)        # 6044e8 <global_offset>
  401e03:	41 b9 00 00 00 00    	mov    $0x0,%r9d
  401e09:	41 b8 00 00 00 00    	mov    $0x0,%r8d
  401e0f:	b9 32 01 00 00       	mov    $0x132,%ecx
  401e14:	ba 07 00 00 00       	mov    $0x7,%edx
  401e19:	be 00 00 10 00       	mov    $0x100000,%esi
  401e1e:	bf 00 60 58 55       	mov    $0x55586000,%edi
  401e23:	e8 28 ee ff ff       	callq  400c50 <mmap@plt>
  401e28:	48 89 c3             	mov    %rax,%rbx
  401e2b:	48 3d 00 60 58 55    	cmp    $0x55586000,%rax
  401e31:	75 43                	jne    401e76 <stable_launch+0x7b>
  401e33:	48 8d 90 f8 ff 0f 00 	lea    0xffff8(%rax),%rdx
  401e3a:	48 89 15 ef 32 20 00 	mov    %rdx,0x2032ef(%rip)        # 605130 <stack_top>
  401e41:	48 89 e0             	mov    %rsp,%rax
  401e44:	48 89 d4             	mov    %rdx,%rsp
  401e47:	48 89 c2             	mov    %rax,%rdx
  401e4a:	48 89 15 8f 26 20 00 	mov    %rdx,0x20268f(%rip)        # 6044e0 <global_save_stack>
  401e51:	48 8b 3d 90 26 20 00 	mov    0x202690(%rip),%rdi        # 6044e8 <global_offset>
  401e58:	e8 15 ff ff ff       	callq  401d72 <launch>
  401e5d:	48 8b 05 7c 26 20 00 	mov    0x20267c(%rip),%rax        # 6044e0 <global_save_stack>
  401e64:	48 89 c4             	mov    %rax,%rsp
  401e67:	be 00 00 10 00       	mov    $0x100000,%esi
  401e6c:	48 89 df             	mov    %rbx,%rdi
  401e6f:	e8 cc ee ff ff       	callq  400d40 <munmap@plt>
  401e74:	5b                   	pop    %rbx
  401e75:	c3                   	retq   
  401e76:	be 00 00 10 00       	mov    $0x100000,%esi
  401e7b:	48 89 c7             	mov    %rax,%rdi
  401e7e:	e8 bd ee ff ff       	callq  400d40 <munmap@plt>
  401e83:	ba 00 60 58 55       	mov    $0x55586000,%edx
  401e88:	48 8d 35 e9 13 00 00 	lea    0x13e9(%rip),%rsi        # 403278 <_IO_stdin_used+0x688>
  401e8f:	48 8b 3d 2a 26 20 00 	mov    0x20262a(%rip),%rdi        # 6044c0 <stderr@@GLIBC_2.2.5>
  401e96:	b8 00 00 00 00       	mov    $0x0,%eax
  401e9b:	e8 30 ee ff ff       	callq  400cd0 <fprintf@plt>
  401ea0:	bf 01 00 00 00       	mov    $0x1,%edi
  401ea5:	e8 06 ef ff ff       	callq  400db0 <exit@plt>

0000000000401eaa <rio_readinitb>:
  401eaa:	89 37                	mov    %esi,(%rdi)
  401eac:	c7 47 04 00 00 00 00 	movl   $0x0,0x4(%rdi)
  401eb3:	48 8d 47 10          	lea    0x10(%rdi),%rax
  401eb7:	48 89 47 08          	mov    %rax,0x8(%rdi)
  401ebb:	c3                   	retq   

0000000000401ebc <sigalrm_handler>:
  401ebc:	48 83 ec 08          	sub    $0x8,%rsp
  401ec0:	ba 00 00 00 00       	mov    $0x0,%edx
  401ec5:	48 8d 35 e4 13 00 00 	lea    0x13e4(%rip),%rsi        # 4032b0 <trans_char+0x10>
  401ecc:	48 8b 3d ed 25 20 00 	mov    0x2025ed(%rip),%rdi        # 6044c0 <stderr@@GLIBC_2.2.5>
  401ed3:	b8 00 00 00 00       	mov    $0x0,%eax
  401ed8:	e8 f3 ed ff ff       	callq  400cd0 <fprintf@plt>
  401edd:	bf 01 00 00 00       	mov    $0x1,%edi
  401ee2:	e8 c9 ee ff ff       	callq  400db0 <exit@plt>

0000000000401ee7 <urlencode>:
  401ee7:	41 54                	push   %r12
  401ee9:	55                   	push   %rbp
  401eea:	53                   	push   %rbx
  401eeb:	48 83 ec 10          	sub    $0x10,%rsp
  401eef:	48 89 fb             	mov    %rdi,%rbx
  401ef2:	48 89 f5             	mov    %rsi,%rbp
  401ef5:	b8 00 00 00 00       	mov    $0x0,%eax
  401efa:	48 c7 c1 ff ff ff ff 	mov    $0xffffffffffffffff,%rcx
  401f01:	f2 ae                	repnz scas %es:(%rdi),%al
  401f03:	48 f7 d1             	not    %rcx
  401f06:	8d 41 ff             	lea    -0x1(%rcx),%eax
  401f09:	eb 0e                	jmp    401f19 <urlencode+0x32>
  401f0b:	88 55 00             	mov    %dl,0x0(%rbp)
  401f0e:	48 8d 6d 01          	lea    0x1(%rbp),%rbp
  401f12:	48 83 c3 01          	add    $0x1,%rbx
  401f16:	44 89 e0             	mov    %r12d,%eax
  401f19:	44 8d 60 ff          	lea    -0x1(%rax),%r12d
  401f1d:	85 c0                	test   %eax,%eax
  401f1f:	0f 84 95 00 00 00    	je     401fba <urlencode+0xd3>
  401f25:	0f b6 13             	movzbl (%rbx),%edx
  401f28:	80 fa 2a             	cmp    $0x2a,%dl
  401f2b:	0f 94 c1             	sete   %cl
  401f2e:	80 fa 2d             	cmp    $0x2d,%dl
  401f31:	0f 94 c0             	sete   %al
  401f34:	08 c1                	or     %al,%cl
  401f36:	75 d3                	jne    401f0b <urlencode+0x24>
  401f38:	80 fa 2e             	cmp    $0x2e,%dl
  401f3b:	74 ce                	je     401f0b <urlencode+0x24>
  401f3d:	80 fa 5f             	cmp    $0x5f,%dl
  401f40:	74 c9                	je     401f0b <urlencode+0x24>
  401f42:	8d 42 d0             	lea    -0x30(%rdx),%eax
  401f45:	3c 09                	cmp    $0x9,%al
  401f47:	76 c2                	jbe    401f0b <urlencode+0x24>
  401f49:	8d 42 bf             	lea    -0x41(%rdx),%eax
  401f4c:	3c 19                	cmp    $0x19,%al
  401f4e:	76 bb                	jbe    401f0b <urlencode+0x24>
  401f50:	8d 42 9f             	lea    -0x61(%rdx),%eax
  401f53:	3c 19                	cmp    $0x19,%al
  401f55:	76 b4                	jbe    401f0b <urlencode+0x24>
  401f57:	80 fa 20             	cmp    $0x20,%dl
  401f5a:	74 4c                	je     401fa8 <urlencode+0xc1>
  401f5c:	8d 42 e0             	lea    -0x20(%rdx),%eax
  401f5f:	3c 5f                	cmp    $0x5f,%al
  401f61:	0f 96 c1             	setbe  %cl
  401f64:	80 fa 09             	cmp    $0x9,%dl
  401f67:	0f 94 c0             	sete   %al
  401f6a:	08 c1                	or     %al,%cl
  401f6c:	74 47                	je     401fb5 <urlencode+0xce>
  401f6e:	0f b6 d2             	movzbl %dl,%edx
  401f71:	48 8d 7c 24 08       	lea    0x8(%rsp),%rdi
  401f76:	48 8d 35 cb 13 00 00 	lea    0x13cb(%rip),%rsi        # 403348 <trans_char+0xa8>
  401f7d:	b8 00 00 00 00       	mov    $0x0,%eax
  401f82:	e8 19 ee ff ff       	callq  400da0 <sprintf@plt>
  401f87:	0f b6 44 24 08       	movzbl 0x8(%rsp),%eax
  401f8c:	88 45 00             	mov    %al,0x0(%rbp)
  401f8f:	0f b6 44 24 09       	movzbl 0x9(%rsp),%eax
  401f94:	88 45 01             	mov    %al,0x1(%rbp)
  401f97:	0f b6 44 24 0a       	movzbl 0xa(%rsp),%eax
  401f9c:	88 45 02             	mov    %al,0x2(%rbp)
  401f9f:	48 8d 6d 03          	lea    0x3(%rbp),%rbp
  401fa3:	e9 6a ff ff ff       	jmpq   401f12 <urlencode+0x2b>
  401fa8:	c6 45 00 2b          	movb   $0x2b,0x0(%rbp)
  401fac:	48 8d 6d 01          	lea    0x1(%rbp),%rbp
  401fb0:	e9 5d ff ff ff       	jmpq   401f12 <urlencode+0x2b>
  401fb5:	b8 ff ff ff ff       	mov    $0xffffffff,%eax
  401fba:	48 83 c4 10          	add    $0x10,%rsp
  401fbe:	5b                   	pop    %rbx
  401fbf:	5d                   	pop    %rbp
  401fc0:	41 5c                	pop    %r12
  401fc2:	c3                   	retq   

0000000000401fc3 <rio_writen>:
  401fc3:	41 55                	push   %r13
  401fc5:	41 54                	push   %r12
  401fc7:	55                   	push   %rbp
  401fc8:	53                   	push   %rbx
  401fc9:	48 83 ec 08          	sub    $0x8,%rsp
  401fcd:	41 89 fc             	mov    %edi,%r12d
  401fd0:	49 89 d5             	mov    %rdx,%r13
  401fd3:	48 89 f5             	mov    %rsi,%rbp
  401fd6:	48 89 d3             	mov    %rdx,%rbx
  401fd9:	eb 06                	jmp    401fe1 <rio_writen+0x1e>
  401fdb:	48 29 c3             	sub    %rax,%rbx
  401fde:	48 01 c5             	add    %rax,%rbp
  401fe1:	48 85 db             	test   %rbx,%rbx
  401fe4:	74 24                	je     40200a <rio_writen+0x47>
  401fe6:	48 89 da             	mov    %rbx,%rdx
  401fe9:	48 89 ee             	mov    %rbp,%rsi
  401fec:	44 89 e7             	mov    %r12d,%edi
  401fef:	e8 4c ec ff ff       	callq  400c40 <write@plt>
  401ff4:	48 85 c0             	test   %rax,%rax
  401ff7:	7f e2                	jg     401fdb <rio_writen+0x18>
  401ff9:	e8 f2 eb ff ff       	callq  400bf0 <__errno_location@plt>
  401ffe:	83 38 04             	cmpl   $0x4,(%rax)
  402001:	75 15                	jne    402018 <rio_writen+0x55>
  402003:	b8 00 00 00 00       	mov    $0x0,%eax
  402008:	eb d1                	jmp    401fdb <rio_writen+0x18>
  40200a:	4c 89 e8             	mov    %r13,%rax
  40200d:	48 83 c4 08          	add    $0x8,%rsp
  402011:	5b                   	pop    %rbx
  402012:	5d                   	pop    %rbp
  402013:	41 5c                	pop    %r12
  402015:	41 5d                	pop    %r13
  402017:	c3                   	retq   
  402018:	48 c7 c0 ff ff ff ff 	mov    $0xffffffffffffffff,%rax
  40201f:	eb ec                	jmp    40200d <rio_writen+0x4a>

0000000000402021 <rio_read>:
  402021:	41 55                	push   %r13
  402023:	41 54                	push   %r12
  402025:	55                   	push   %rbp
  402026:	53                   	push   %rbx
  402027:	48 83 ec 08          	sub    $0x8,%rsp
  40202b:	48 89 fb             	mov    %rdi,%rbx
  40202e:	49 89 f5             	mov    %rsi,%r13
  402031:	49 89 d4             	mov    %rdx,%r12
  402034:	eb 0a                	jmp    402040 <rio_read+0x1f>
  402036:	e8 b5 eb ff ff       	callq  400bf0 <__errno_location@plt>
  40203b:	83 38 04             	cmpl   $0x4,(%rax)
  40203e:	75 5c                	jne    40209c <rio_read+0x7b>
  402040:	8b 6b 04             	mov    0x4(%rbx),%ebp
  402043:	85 ed                	test   %ebp,%ebp
  402045:	7f 24                	jg     40206b <rio_read+0x4a>
  402047:	48 8d 6b 10          	lea    0x10(%rbx),%rbp
  40204b:	ba 00 20 00 00       	mov    $0x2000,%edx
  402050:	48 89 ee             	mov    %rbp,%rsi
  402053:	8b 3b                	mov    (%rbx),%edi
  402055:	e8 46 ec ff ff       	callq  400ca0 <read@plt>
  40205a:	89 43 04             	mov    %eax,0x4(%rbx)
  40205d:	85 c0                	test   %eax,%eax
  40205f:	78 d5                	js     402036 <rio_read+0x15>
  402061:	85 c0                	test   %eax,%eax
  402063:	74 40                	je     4020a5 <rio_read+0x84>
  402065:	48 89 6b 08          	mov    %rbp,0x8(%rbx)
  402069:	eb d5                	jmp    402040 <rio_read+0x1f>
  40206b:	89 e8                	mov    %ebp,%eax
  40206d:	49 39 c4             	cmp    %rax,%r12
  402070:	77 03                	ja     402075 <rio_read+0x54>
  402072:	44 89 e5             	mov    %r12d,%ebp
  402075:	4c 63 e5             	movslq %ebp,%r12
  402078:	48 8b 73 08          	mov    0x8(%rbx),%rsi
  40207c:	4c 89 e2             	mov    %r12,%rdx
  40207f:	4c 89 ef             	mov    %r13,%rdi
  402082:	e8 69 ec ff ff       	callq  400cf0 <memcpy@plt>
  402087:	4c 01 63 08          	add    %r12,0x8(%rbx)
  40208b:	29 6b 04             	sub    %ebp,0x4(%rbx)
  40208e:	4c 89 e0             	mov    %r12,%rax
  402091:	48 83 c4 08          	add    $0x8,%rsp
  402095:	5b                   	pop    %rbx
  402096:	5d                   	pop    %rbp
  402097:	41 5c                	pop    %r12
  402099:	41 5d                	pop    %r13
  40209b:	c3                   	retq   
  40209c:	48 c7 c0 ff ff ff ff 	mov    $0xffffffffffffffff,%rax
  4020a3:	eb ec                	jmp    402091 <rio_read+0x70>
  4020a5:	b8 00 00 00 00       	mov    $0x0,%eax
  4020aa:	eb e5                	jmp    402091 <rio_read+0x70>

00000000004020ac <rio_readlineb>:
  4020ac:	41 55                	push   %r13
  4020ae:	41 54                	push   %r12
  4020b0:	55                   	push   %rbp
  4020b1:	53                   	push   %rbx
  4020b2:	48 83 ec 18          	sub    $0x18,%rsp
  4020b6:	49 89 fd             	mov    %rdi,%r13
  4020b9:	49 89 d4             	mov    %rdx,%r12
  4020bc:	48 89 f5             	mov    %rsi,%rbp
  4020bf:	bb 01 00 00 00       	mov    $0x1,%ebx
  4020c4:	4c 39 e3             	cmp    %r12,%rbx
  4020c7:	73 47                	jae    402110 <rio_readlineb+0x64>
  4020c9:	48 8d 74 24 0f       	lea    0xf(%rsp),%rsi
  4020ce:	ba 01 00 00 00       	mov    $0x1,%edx
  4020d3:	4c 89 ef             	mov    %r13,%rdi
  4020d6:	e8 46 ff ff ff       	callq  402021 <rio_read>
  4020db:	83 f8 01             	cmp    $0x1,%eax
  4020de:	75 1c                	jne    4020fc <rio_readlineb+0x50>
  4020e0:	48 8d 45 01          	lea    0x1(%rbp),%rax
  4020e4:	0f b6 54 24 0f       	movzbl 0xf(%rsp),%edx
  4020e9:	88 55 00             	mov    %dl,0x0(%rbp)
  4020ec:	80 7c 24 0f 0a       	cmpb   $0xa,0xf(%rsp)
  4020f1:	74 1a                	je     40210d <rio_readlineb+0x61>
  4020f3:	48 83 c3 01          	add    $0x1,%rbx
  4020f7:	48 89 c5             	mov    %rax,%rbp
  4020fa:	eb c8                	jmp    4020c4 <rio_readlineb+0x18>
  4020fc:	85 c0                	test   %eax,%eax
  4020fe:	75 22                	jne    402122 <rio_readlineb+0x76>
  402100:	48 83 fb 01          	cmp    $0x1,%rbx
  402104:	75 0a                	jne    402110 <rio_readlineb+0x64>
  402106:	b8 00 00 00 00       	mov    $0x0,%eax
  40210b:	eb 0a                	jmp    402117 <rio_readlineb+0x6b>
  40210d:	48 89 c5             	mov    %rax,%rbp
  402110:	c6 45 00 00          	movb   $0x0,0x0(%rbp)
  402114:	48 89 d8             	mov    %rbx,%rax
  402117:	48 83 c4 18          	add    $0x18,%rsp
  40211b:	5b                   	pop    %rbx
  40211c:	5d                   	pop    %rbp
  40211d:	41 5c                	pop    %r12
  40211f:	41 5d                	pop    %r13
  402121:	c3                   	retq   
  402122:	48 c7 c0 ff ff ff ff 	mov    $0xffffffffffffffff,%rax
  402129:	eb ec                	jmp    402117 <rio_readlineb+0x6b>

000000000040212b <submitr>:
  40212b:	41 57                	push   %r15
  40212d:	41 56                	push   %r14
  40212f:	41 55                	push   %r13
  402131:	41 54                	push   %r12
  402133:	55                   	push   %rbp
  402134:	53                   	push   %rbx
  402135:	48 81 ec 58 a0 00 00 	sub    $0xa058,%rsp
  40213c:	49 89 fd             	mov    %rdi,%r13
  40213f:	89 74 24 14          	mov    %esi,0x14(%rsp)
  402143:	49 89 d7             	mov    %rdx,%r15
  402146:	48 89 4c 24 08       	mov    %rcx,0x8(%rsp)
  40214b:	4c 89 44 24 18       	mov    %r8,0x18(%rsp)
  402150:	4d 89 ce             	mov    %r9,%r14
  402153:	48 8b 9c 24 90 a0 00 	mov    0xa090(%rsp),%rbx
  40215a:	00 
  40215b:	c7 84 24 2c 20 00 00 	movl   $0x0,0x202c(%rsp)
  402162:	00 00 00 00 
  402166:	ba 00 00 00 00       	mov    $0x0,%edx
  40216b:	be 01 00 00 00       	mov    $0x1,%esi
  402170:	bf 02 00 00 00       	mov    $0x2,%edi
  402175:	e8 56 ec ff ff       	callq  400dd0 <socket@plt>
  40217a:	85 c0                	test   %eax,%eax
  40217c:	0f 88 ca 01 00 00    	js     40234c <submitr+0x221>
  402182:	89 c5                	mov    %eax,%ebp
  402184:	4c 89 ef             	mov    %r13,%rdi
  402187:	e8 34 eb ff ff       	callq  400cc0 <gethostbyname@plt>
  40218c:	48 85 c0             	test   %rax,%rax
  40218f:	0f 84 05 02 00 00    	je     40239a <submitr+0x26f>
  402195:	4c 8d a4 24 40 a0 00 	lea    0xa040(%rsp),%r12
  40219c:	00 
  40219d:	48 c7 84 24 40 a0 00 	movq   $0x0,0xa040(%rsp)
  4021a4:	00 00 00 00 00 
  4021a9:	48 c7 84 24 48 a0 00 	movq   $0x0,0xa048(%rsp)
  4021b0:	00 00 00 00 00 
  4021b5:	66 c7 84 24 40 a0 00 	movw   $0x2,0xa040(%rsp)
  4021bc:	00 02 00 
  4021bf:	48 8b 48 18          	mov    0x18(%rax),%rcx
  4021c3:	48 63 50 14          	movslq 0x14(%rax),%rdx
  4021c7:	48 8d b4 24 44 a0 00 	lea    0xa044(%rsp),%rsi
  4021ce:	00 
  4021cf:	48 8b 39             	mov    (%rcx),%rdi
  4021d2:	e8 79 eb ff ff       	callq  400d50 <bcopy@plt>
  4021d7:	0f b7 44 24 14       	movzwl 0x14(%rsp),%eax
  4021dc:	66 c1 c8 08          	ror    $0x8,%ax
  4021e0:	66 89 84 24 42 a0 00 	mov    %ax,0xa042(%rsp)
  4021e7:	00 
  4021e8:	ba 10 00 00 00       	mov    $0x10,%edx
  4021ed:	4c 89 e6             	mov    %r12,%rsi
  4021f0:	89 ef                	mov    %ebp,%edi
  4021f2:	e8 c9 eb ff ff       	callq  400dc0 <connect@plt>
  4021f7:	85 c0                	test   %eax,%eax
  4021f9:	0f 88 02 02 00 00    	js     402401 <submitr+0x2d6>
  4021ff:	48 c7 c6 ff ff ff ff 	mov    $0xffffffffffffffff,%rsi
  402206:	b8 00 00 00 00       	mov    $0x0,%eax
  40220b:	48 89 f1             	mov    %rsi,%rcx
  40220e:	4c 89 f7             	mov    %r14,%rdi
  402211:	f2 ae                	repnz scas %es:(%rdi),%al
  402213:	48 f7 d1             	not    %rcx
  402216:	48 89 ca             	mov    %rcx,%rdx
  402219:	48 89 f1             	mov    %rsi,%rcx
  40221c:	4c 89 ff             	mov    %r15,%rdi
  40221f:	f2 ae                	repnz scas %es:(%rdi),%al
  402221:	48 f7 d1             	not    %rcx
  402224:	49 89 c8             	mov    %rcx,%r8
  402227:	48 89 f1             	mov    %rsi,%rcx
  40222a:	48 8b 7c 24 08       	mov    0x8(%rsp),%rdi
  40222f:	f2 ae                	repnz scas %es:(%rdi),%al
  402231:	48 f7 d1             	not    %rcx
  402234:	4d 8d 44 08 fe       	lea    -0x2(%r8,%rcx,1),%r8
  402239:	48 89 f1             	mov    %rsi,%rcx
  40223c:	48 8b 7c 24 18       	mov    0x18(%rsp),%rdi
  402241:	f2 ae                	repnz scas %es:(%rdi),%al
  402243:	48 89 c8             	mov    %rcx,%rax
  402246:	48 f7 d0             	not    %rax
  402249:	49 8d 4c 00 ff       	lea    -0x1(%r8,%rax,1),%rcx
  40224e:	48 8d 44 52 fd       	lea    -0x3(%rdx,%rdx,2),%rax
  402253:	48 8d 84 01 80 00 00 	lea    0x80(%rcx,%rax,1),%rax
  40225a:	00 
  40225b:	48 3d 00 20 00 00    	cmp    $0x2000,%rax
  402261:	0f 87 f3 01 00 00    	ja     40245a <submitr+0x32f>
  402267:	48 8d b4 24 30 40 00 	lea    0x4030(%rsp),%rsi
  40226e:	00 
  40226f:	b9 00 04 00 00       	mov    $0x400,%ecx
  402274:	b8 00 00 00 00       	mov    $0x0,%eax
  402279:	48 89 f7             	mov    %rsi,%rdi
  40227c:	f3 48 ab             	rep stos %rax,%es:(%rdi)
  40227f:	4c 89 f7             	mov    %r14,%rdi
  402282:	e8 60 fc ff ff       	callq  401ee7 <urlencode>
  402287:	85 c0                	test   %eax,%eax
  402289:	0f 88 3d 02 00 00    	js     4024cc <submitr+0x3a1>
  40228f:	4c 8d a4 24 30 60 00 	lea    0x6030(%rsp),%r12
  402296:	00 
  402297:	4d 89 e9             	mov    %r13,%r9
  40229a:	4c 8d 84 24 30 40 00 	lea    0x4030(%rsp),%r8
  4022a1:	00 
  4022a2:	4c 89 f9             	mov    %r15,%rcx
  4022a5:	48 8b 54 24 08       	mov    0x8(%rsp),%rdx
  4022aa:	48 8d 35 27 10 00 00 	lea    0x1027(%rip),%rsi        # 4032d8 <trans_char+0x38>
  4022b1:	4c 89 e7             	mov    %r12,%rdi
  4022b4:	b8 00 00 00 00       	mov    $0x0,%eax
  4022b9:	e8 e2 ea ff ff       	callq  400da0 <sprintf@plt>
  4022be:	b8 00 00 00 00       	mov    $0x0,%eax
  4022c3:	48 c7 c1 ff ff ff ff 	mov    $0xffffffffffffffff,%rcx
  4022ca:	4c 89 e7             	mov    %r12,%rdi
  4022cd:	f2 ae                	repnz scas %es:(%rdi),%al
  4022cf:	48 f7 d1             	not    %rcx
  4022d2:	48 8d 51 ff          	lea    -0x1(%rcx),%rdx
  4022d6:	4c 89 e6             	mov    %r12,%rsi
  4022d9:	89 ef                	mov    %ebp,%edi
  4022db:	e8 e3 fc ff ff       	callq  401fc3 <rio_writen>
  4022e0:	48 85 c0             	test   %rax,%rax
  4022e3:	0f 88 6d 02 00 00    	js     402556 <submitr+0x42b>
  4022e9:	4c 8d a4 24 30 80 00 	lea    0x8030(%rsp),%r12
  4022f0:	00 
  4022f1:	89 ee                	mov    %ebp,%esi
  4022f3:	4c 89 e7             	mov    %r12,%rdi
  4022f6:	e8 af fb ff ff       	callq  401eaa <rio_readinitb>
  4022fb:	48 8d b4 24 30 60 00 	lea    0x6030(%rsp),%rsi
  402302:	00 
  402303:	ba 00 20 00 00       	mov    $0x2000,%edx
  402308:	4c 89 e7             	mov    %r12,%rdi
  40230b:	e8 9c fd ff ff       	callq  4020ac <rio_readlineb>
  402310:	48 85 c0             	test   %rax,%rax
  402313:	0f 8e ab 02 00 00    	jle    4025c4 <submitr+0x499>
  402319:	48 8d 8c 24 2c 20 00 	lea    0x202c(%rsp),%rcx
  402320:	00 
  402321:	48 8d 94 24 30 20 00 	lea    0x2030(%rsp),%rdx
  402328:	00 
  402329:	48 8d bc 24 30 60 00 	lea    0x6030(%rsp),%rdi
  402330:	00 
  402331:	4c 8d 44 24 20       	lea    0x20(%rsp),%r8
  402336:	48 8d 35 12 10 00 00 	lea    0x1012(%rip),%rsi        # 40334f <trans_char+0xaf>
  40233d:	b8 00 00 00 00       	mov    $0x0,%eax
  402342:	e8 e9 e9 ff ff       	callq  400d30 <__isoc99_sscanf@plt>
  402347:	e9 9f 03 00 00       	jmpq   4026eb <submitr+0x5c0>
  40234c:	48 b8 45 72 72 6f 72 	movabs $0x43203a726f727245,%rax
  402353:	3a 20 43 
  402356:	48 89 03             	mov    %rax,(%rbx)
  402359:	48 b8 6c 69 65 6e 74 	movabs $0x6e7520746e65696c,%rax
  402360:	20 75 6e 
  402363:	48 89 43 08          	mov    %rax,0x8(%rbx)
  402367:	48 b8 61 62 6c 65 20 	movabs $0x206f7420656c6261,%rax
  40236e:	74 6f 20 
  402371:	48 89 43 10          	mov    %rax,0x10(%rbx)
  402375:	48 b8 63 72 65 61 74 	movabs $0x7320657461657263,%rax
  40237c:	65 20 73 
  40237f:	48 89 43 18          	mov    %rax,0x18(%rbx)
  402383:	c7 43 20 6f 63 6b 65 	movl   $0x656b636f,0x20(%rbx)
  40238a:	66 c7 43 24 74 00    	movw   $0x74,0x24(%rbx)
  402390:	b8 ff ff ff ff       	mov    $0xffffffff,%eax
  402395:	e9 18 03 00 00       	jmpq   4026b2 <submitr+0x587>
  40239a:	48 b8 45 72 72 6f 72 	movabs $0x44203a726f727245,%rax
  4023a1:	3a 20 44 
  4023a4:	48 89 03             	mov    %rax,(%rbx)
  4023a7:	48 b8 4e 53 20 69 73 	movabs $0x6e7520736920534e,%rax
  4023ae:	20 75 6e 
  4023b1:	48 89 43 08          	mov    %rax,0x8(%rbx)
  4023b5:	48 b8 61 62 6c 65 20 	movabs $0x206f7420656c6261,%rax
  4023bc:	74 6f 20 
  4023bf:	48 89 43 10          	mov    %rax,0x10(%rbx)
  4023c3:	48 b8 72 65 73 6f 6c 	movabs $0x2065766c6f736572,%rax
  4023ca:	76 65 20 
  4023cd:	48 89 43 18          	mov    %rax,0x18(%rbx)
  4023d1:	48 b8 73 65 72 76 65 	movabs $0x6120726576726573,%rax
  4023d8:	72 20 61 
  4023db:	48 89 43 20          	mov    %rax,0x20(%rbx)
  4023df:	c7 43 28 64 64 72 65 	movl   $0x65726464,0x28(%rbx)
  4023e6:	66 c7 43 2c 73 73    	movw   $0x7373,0x2c(%rbx)
  4023ec:	c6 43 2e 00          	movb   $0x0,0x2e(%rbx)
  4023f0:	89 ef                	mov    %ebp,%edi
  4023f2:	e8 99 e8 ff ff       	callq  400c90 <close@plt>
  4023f7:	b8 ff ff ff ff       	mov    $0xffffffff,%eax
  4023fc:	e9 b1 02 00 00       	jmpq   4026b2 <submitr+0x587>
  402401:	48 b8 45 72 72 6f 72 	movabs $0x55203a726f727245,%rax
  402408:	3a 20 55 
  40240b:	48 89 03             	mov    %rax,(%rbx)
  40240e:	48 b8 6e 61 62 6c 65 	movabs $0x6f7420656c62616e,%rax
  402415:	20 74 6f 
  402418:	48 89 43 08          	mov    %rax,0x8(%rbx)
  40241c:	48 b8 20 63 6f 6e 6e 	movabs $0x7463656e6e6f6320,%rax
  402423:	65 63 74 
  402426:	48 89 43 10          	mov    %rax,0x10(%rbx)
  40242a:	48 b8 20 74 6f 20 74 	movabs $0x20656874206f7420,%rax
  402431:	68 65 20 
  402434:	48 89 43 18          	mov    %rax,0x18(%rbx)
  402438:	c7 43 20 73 65 72 76 	movl   $0x76726573,0x20(%rbx)
  40243f:	66 c7 43 24 65 72    	movw   $0x7265,0x24(%rbx)
  402445:	c6 43 26 00          	movb   $0x0,0x26(%rbx)
  402449:	89 ef                	mov    %ebp,%edi
  40244b:	e8 40 e8 ff ff       	callq  400c90 <close@plt>
  402450:	b8 ff ff ff ff       	mov    $0xffffffff,%eax
  402455:	e9 58 02 00 00       	jmpq   4026b2 <submitr+0x587>
  40245a:	48 b8 45 72 72 6f 72 	movabs $0x52203a726f727245,%rax
  402461:	3a 20 52 
  402464:	48 89 03             	mov    %rax,(%rbx)
  402467:	48 b8 65 73 75 6c 74 	movabs $0x747320746c757365,%rax
  40246e:	20 73 74 
  402471:	48 89 43 08          	mov    %rax,0x8(%rbx)
  402475:	48 b8 72 69 6e 67 20 	movabs $0x6f6f7420676e6972,%rax
  40247c:	74 6f 6f 
  40247f:	48 89 43 10          	mov    %rax,0x10(%rbx)
  402483:	48 b8 20 6c 61 72 67 	movabs $0x202e656772616c20,%rax
  40248a:	65 2e 20 
  40248d:	48 89 43 18          	mov    %rax,0x18(%rbx)
  402491:	48 b8 49 6e 63 72 65 	movabs $0x6573616572636e49,%rax
  402498:	61 73 65 
  40249b:	48 89 43 20          	mov    %rax,0x20(%rbx)
  40249f:	48 b8 20 53 55 42 4d 	movabs $0x5254494d42555320,%rax
  4024a6:	49 54 52 
  4024a9:	48 89 43 28          	mov    %rax,0x28(%rbx)
  4024ad:	48 b8 5f 4d 41 58 42 	movabs $0x46554258414d5f,%rax
  4024b4:	55 46 00 
  4024b7:	48 89 43 30          	mov    %rax,0x30(%rbx)
  4024bb:	89 ef                	mov    %ebp,%edi
  4024bd:	e8 ce e7 ff ff       	callq  400c90 <close@plt>
  4024c2:	b8 ff ff ff ff       	mov    $0xffffffff,%eax
  4024c7:	e9 e6 01 00 00       	jmpq   4026b2 <submitr+0x587>
  4024cc:	48 b8 45 72 72 6f 72 	movabs $0x52203a726f727245,%rax
  4024d3:	3a 20 52 
  4024d6:	48 89 03             	mov    %rax,(%rbx)
  4024d9:	48 b8 65 73 75 6c 74 	movabs $0x747320746c757365,%rax
  4024e0:	20 73 74 
  4024e3:	48 89 43 08          	mov    %rax,0x8(%rbx)
  4024e7:	48 b8 72 69 6e 67 20 	movabs $0x6e6f6320676e6972,%rax
  4024ee:	63 6f 6e 
  4024f1:	48 89 43 10          	mov    %rax,0x10(%rbx)
  4024f5:	48 b8 74 61 69 6e 73 	movabs $0x6e6120736e696174,%rax
  4024fc:	20 61 6e 
  4024ff:	48 89 43 18          	mov    %rax,0x18(%rbx)
  402503:	48 b8 20 69 6c 6c 65 	movabs $0x6c6167656c6c6920,%rax
  40250a:	67 61 6c 
  40250d:	48 89 43 20          	mov    %rax,0x20(%rbx)
  402511:	48 b8 20 6f 72 20 75 	movabs $0x72706e7520726f20,%rax
  402518:	6e 70 72 
  40251b:	48 89 43 28          	mov    %rax,0x28(%rbx)
  40251f:	48 b8 69 6e 74 61 62 	movabs $0x20656c6261746e69,%rax
  402526:	6c 65 20 
  402529:	48 89 43 30          	mov    %rax,0x30(%rbx)
  40252d:	48 b8 63 68 61 72 61 	movabs $0x6574636172616863,%rax
  402534:	63 74 65 
  402537:	48 89 43 38          	mov    %rax,0x38(%rbx)
  40253b:	66 c7 43 40 72 2e    	movw   $0x2e72,0x40(%rbx)
  402541:	c6 43 42 00          	movb   $0x0,0x42(%rbx)
  402545:	89 ef                	mov    %ebp,%edi
  402547:	e8 44 e7 ff ff       	callq  400c90 <close@plt>
  40254c:	b8 ff ff ff ff       	mov    $0xffffffff,%eax
  402551:	e9 5c 01 00 00       	jmpq   4026b2 <submitr+0x587>
  402556:	48 b8 45 72 72 6f 72 	movabs $0x43203a726f727245,%rax
  40255d:	3a 20 43 
  402560:	48 89 03             	mov    %rax,(%rbx)
  402563:	48 b8 6c 69 65 6e 74 	movabs $0x6e7520746e65696c,%rax
  40256a:	20 75 6e 
  40256d:	48 89 43 08          	mov    %rax,0x8(%rbx)
  402571:	48 b8 61 62 6c 65 20 	movabs $0x206f7420656c6261,%rax
  402578:	74 6f 20 
  40257b:	48 89 43 10          	mov    %rax,0x10(%rbx)
  40257f:	48 b8 77 72 69 74 65 	movabs $0x6f74206574697277,%rax
  402586:	20 74 6f 
  402589:	48 89 43 18          	mov    %rax,0x18(%rbx)
  40258d:	48 b8 20 74 68 65 20 	movabs $0x7365722065687420,%rax
  402594:	72 65 73 
  402597:	48 89 43 20          	mov    %rax,0x20(%rbx)
  40259b:	48 b8 75 6c 74 20 73 	movabs $0x7672657320746c75,%rax
  4025a2:	65 72 76 
  4025a5:	48 89 43 28          	mov    %rax,0x28(%rbx)
  4025a9:	66 c7 43 30 65 72    	movw   $0x7265,0x30(%rbx)
  4025af:	c6 43 32 00          	movb   $0x0,0x32(%rbx)
  4025b3:	89 ef                	mov    %ebp,%edi
  4025b5:	e8 d6 e6 ff ff       	callq  400c90 <close@plt>
  4025ba:	b8 ff ff ff ff       	mov    $0xffffffff,%eax
  4025bf:	e9 ee 00 00 00       	jmpq   4026b2 <submitr+0x587>
  4025c4:	48 b8 45 72 72 6f 72 	movabs $0x43203a726f727245,%rax
  4025cb:	3a 20 43 
  4025ce:	48 89 03             	mov    %rax,(%rbx)
  4025d1:	48 b8 6c 69 65 6e 74 	movabs $0x6e7520746e65696c,%rax
  4025d8:	20 75 6e 
  4025db:	48 89 43 08          	mov    %rax,0x8(%rbx)
  4025df:	48 b8 61 62 6c 65 20 	movabs $0x206f7420656c6261,%rax
  4025e6:	74 6f 20 
  4025e9:	48 89 43 10          	mov    %rax,0x10(%rbx)
  4025ed:	48 b8 72 65 61 64 20 	movabs $0x7269662064616572,%rax
  4025f4:	66 69 72 
  4025f7:	48 89 43 18          	mov    %rax,0x18(%rbx)
  4025fb:	48 b8 73 74 20 68 65 	movabs $0x6564616568207473,%rax
  402602:	61 64 65 
  402605:	48 89 43 20          	mov    %rax,0x20(%rbx)
  402609:	48 b8 72 20 66 72 6f 	movabs $0x72206d6f72662072,%rax
  402610:	6d 20 72 
  402613:	48 89 43 28          	mov    %rax,0x28(%rbx)
  402617:	48 b8 65 73 75 6c 74 	movabs $0x657320746c757365,%rax
  40261e:	20 73 65 
  402621:	48 89 43 30          	mov    %rax,0x30(%rbx)
  402625:	c7 43 38 72 76 65 72 	movl   $0x72657672,0x38(%rbx)
  40262c:	c6 43 3c 00          	movb   $0x0,0x3c(%rbx)
  402630:	89 ef                	mov    %ebp,%edi
  402632:	e8 59 e6 ff ff       	callq  400c90 <close@plt>
  402637:	b8 ff ff ff ff       	mov    $0xffffffff,%eax
  40263c:	eb 74                	jmp    4026b2 <submitr+0x587>
  40263e:	48 b8 45 72 72 6f 72 	movabs $0x43203a726f727245,%rax
  402645:	3a 20 43 
  402648:	48 89 03             	mov    %rax,(%rbx)
  40264b:	48 b8 6c 69 65 6e 74 	movabs $0x6e7520746e65696c,%rax
  402652:	20 75 6e 
  402655:	48 89 43 08          	mov    %rax,0x8(%rbx)
  402659:	48 b8 61 62 6c 65 20 	movabs $0x206f7420656c6261,%rax
  402660:	74 6f 20 
  402663:	48 89 43 10          	mov    %rax,0x10(%rbx)
  402667:	48 b8 72 65 61 64 20 	movabs $0x6165682064616572,%rax
  40266e:	68 65 61 
  402671:	48 89 43 18          	mov    %rax,0x18(%rbx)
  402675:	48 b8 64 65 72 73 20 	movabs $0x6f72662073726564,%rax
  40267c:	66 72 6f 
  40267f:	48 89 43 20          	mov    %rax,0x20(%rbx)
  402683:	48 b8 6d 20 74 68 65 	movabs $0x657220656874206d,%rax
  40268a:	20 72 65 
  40268d:	48 89 43 28          	mov    %rax,0x28(%rbx)
  402691:	48 b8 73 75 6c 74 20 	movabs $0x72657320746c7573,%rax
  402698:	73 65 72 
  40269b:	48 89 43 30          	mov    %rax,0x30(%rbx)
  40269f:	c7 43 38 76 65 72 00 	movl   $0x726576,0x38(%rbx)
  4026a6:	89 ef                	mov    %ebp,%edi
  4026a8:	e8 e3 e5 ff ff       	callq  400c90 <close@plt>
  4026ad:	b8 ff ff ff ff       	mov    $0xffffffff,%eax
  4026b2:	48 81 c4 58 a0 00 00 	add    $0xa058,%rsp
  4026b9:	5b                   	pop    %rbx
  4026ba:	5d                   	pop    %rbp
  4026bb:	41 5c                	pop    %r12
  4026bd:	41 5d                	pop    %r13
  4026bf:	41 5e                	pop    %r14
  4026c1:	41 5f                	pop    %r15
  4026c3:	c3                   	retq   
  4026c4:	85 c0                	test   %eax,%eax
  4026c6:	74 51                	je     402719 <submitr+0x5ee>
  4026c8:	48 8d b4 24 30 60 00 	lea    0x6030(%rsp),%rsi
  4026cf:	00 
  4026d0:	48 8d bc 24 30 80 00 	lea    0x8030(%rsp),%rdi
  4026d7:	00 
  4026d8:	ba 00 20 00 00       	mov    $0x2000,%edx
  4026dd:	e8 ca f9 ff ff       	callq  4020ac <rio_readlineb>
  4026e2:	48 85 c0             	test   %rax,%rax
  4026e5:	0f 8e 53 ff ff ff    	jle    40263e <submitr+0x513>
  4026eb:	0f b6 94 24 30 60 00 	movzbl 0x6030(%rsp),%edx
  4026f2:	00 
  4026f3:	b8 0d 00 00 00       	mov    $0xd,%eax
  4026f8:	29 d0                	sub    %edx,%eax
  4026fa:	75 c8                	jne    4026c4 <submitr+0x599>
  4026fc:	0f b6 94 24 31 60 00 	movzbl 0x6031(%rsp),%edx
  402703:	00 
  402704:	b8 0a 00 00 00       	mov    $0xa,%eax
  402709:	29 d0                	sub    %edx,%eax
  40270b:	75 b7                	jne    4026c4 <submitr+0x599>
  40270d:	0f b6 84 24 32 60 00 	movzbl 0x6032(%rsp),%eax
  402714:	00 
  402715:	f7 d8                	neg    %eax
  402717:	eb ab                	jmp    4026c4 <submitr+0x599>
  402719:	48 8d b4 24 30 60 00 	lea    0x6030(%rsp),%rsi
  402720:	00 
  402721:	48 8d bc 24 30 80 00 	lea    0x8030(%rsp),%rdi
  402728:	00 
  402729:	ba 00 20 00 00       	mov    $0x2000,%edx
  40272e:	e8 79 f9 ff ff       	callq  4020ac <rio_readlineb>
  402733:	48 85 c0             	test   %rax,%rax
  402736:	7e 67                	jle    40279f <submitr+0x674>
  402738:	8b 94 24 2c 20 00 00 	mov    0x202c(%rsp),%edx
  40273f:	81 fa c8 00 00 00    	cmp    $0xc8,%edx
  402745:	0f 85 d7 00 00 00    	jne    402822 <submitr+0x6f7>
  40274b:	48 8d b4 24 30 60 00 	lea    0x6030(%rsp),%rsi
  402752:	00 
  402753:	48 89 df             	mov    %rbx,%rdi
  402756:	e8 c5 e4 ff ff       	callq  400c20 <strcpy@plt>
  40275b:	89 ef                	mov    %ebp,%edi
  40275d:	e8 2e e5 ff ff       	callq  400c90 <close@plt>
  402762:	0f b6 03             	movzbl (%rbx),%eax
  402765:	ba 4f 00 00 00       	mov    $0x4f,%edx
  40276a:	29 c2                	sub    %eax,%edx
  40276c:	0f 85 da 00 00 00    	jne    40284c <submitr+0x721>
  402772:	0f b6 4b 01          	movzbl 0x1(%rbx),%ecx
  402776:	b8 4b 00 00 00       	mov    $0x4b,%eax
  40277b:	29 c8                	sub    %ecx,%eax
  40277d:	0f 85 cb 00 00 00    	jne    40284e <submitr+0x723>
  402783:	0f b6 4b 02          	movzbl 0x2(%rbx),%ecx
  402787:	b8 0a 00 00 00       	mov    $0xa,%eax
  40278c:	29 c8                	sub    %ecx,%eax
  40278e:	0f 85 ba 00 00 00    	jne    40284e <submitr+0x723>
  402794:	0f b6 43 03          	movzbl 0x3(%rbx),%eax
  402798:	f7 d8                	neg    %eax
  40279a:	e9 af 00 00 00       	jmpq   40284e <submitr+0x723>
  40279f:	48 b8 45 72 72 6f 72 	movabs $0x43203a726f727245,%rax
  4027a6:	3a 20 43 
  4027a9:	48 89 03             	mov    %rax,(%rbx)
  4027ac:	48 b8 6c 69 65 6e 74 	movabs $0x6e7520746e65696c,%rax
  4027b3:	20 75 6e 
  4027b6:	48 89 43 08          	mov    %rax,0x8(%rbx)
  4027ba:	48 b8 61 62 6c 65 20 	movabs $0x206f7420656c6261,%rax
  4027c1:	74 6f 20 
  4027c4:	48 89 43 10          	mov    %rax,0x10(%rbx)
  4027c8:	48 b8 72 65 61 64 20 	movabs $0x6174732064616572,%rax
  4027cf:	73 74 61 
  4027d2:	48 89 43 18          	mov    %rax,0x18(%rbx)
  4027d6:	48 b8 74 75 73 20 6d 	movabs $0x7373656d20737574,%rax
  4027dd:	65 73 73 
  4027e0:	48 89 43 20          	mov    %rax,0x20(%rbx)
  4027e4:	48 b8 61 67 65 20 66 	movabs $0x6d6f726620656761,%rax
  4027eb:	72 6f 6d 
  4027ee:	48 89 43 28          	mov    %rax,0x28(%rbx)
  4027f2:	48 b8 20 72 65 73 75 	movabs $0x20746c7573657220,%rax
  4027f9:	6c 74 20 
  4027fc:	48 89 43 30          	mov    %rax,0x30(%rbx)
  402800:	c7 43 38 73 65 72 76 	movl   $0x76726573,0x38(%rbx)
  402807:	66 c7 43 3c 65 72    	movw   $0x7265,0x3c(%rbx)
  40280d:	c6 43 3e 00          	movb   $0x0,0x3e(%rbx)
  402811:	89 ef                	mov    %ebp,%edi
  402813:	e8 78 e4 ff ff       	callq  400c90 <close@plt>
  402818:	b8 ff ff ff ff       	mov    $0xffffffff,%eax
  40281d:	e9 90 fe ff ff       	jmpq   4026b2 <submitr+0x587>
  402822:	48 8d 4c 24 20       	lea    0x20(%rsp),%rcx
  402827:	48 8d 35 ea 0a 00 00 	lea    0xaea(%rip),%rsi        # 403318 <trans_char+0x78>
  40282e:	48 89 df             	mov    %rbx,%rdi
  402831:	b8 00 00 00 00       	mov    $0x0,%eax
  402836:	e8 65 e5 ff ff       	callq  400da0 <sprintf@plt>
  40283b:	89 ef                	mov    %ebp,%edi
  40283d:	e8 4e e4 ff ff       	callq  400c90 <close@plt>
  402842:	b8 ff ff ff ff       	mov    $0xffffffff,%eax
  402847:	e9 66 fe ff ff       	jmpq   4026b2 <submitr+0x587>
  40284c:	89 d0                	mov    %edx,%eax
  40284e:	f7 d8                	neg    %eax
  402850:	0f 84 5c fe ff ff    	je     4026b2 <submitr+0x587>
  402856:	b9 05 00 00 00       	mov    $0x5,%ecx
  40285b:	48 8d 3d fe 0a 00 00 	lea    0xafe(%rip),%rdi        # 403360 <trans_char+0xc0>
  402862:	48 89 de             	mov    %rbx,%rsi
  402865:	f3 a6                	repz cmpsb %es:(%rdi),%ds:(%rsi)
  402867:	0f 97 c0             	seta   %al
  40286a:	0f 92 c1             	setb   %cl
  40286d:	29 c8                	sub    %ecx,%eax
  40286f:	0f be c0             	movsbl %al,%eax
  402872:	85 c0                	test   %eax,%eax
  402874:	0f 84 38 fe ff ff    	je     4026b2 <submitr+0x587>
  40287a:	85 d2                	test   %edx,%edx
  40287c:	75 13                	jne    402891 <submitr+0x766>
  40287e:	0f b6 43 01          	movzbl 0x1(%rbx),%eax
  402882:	ba 4b 00 00 00       	mov    $0x4b,%edx
  402887:	29 c2                	sub    %eax,%edx
  402889:	75 06                	jne    402891 <submitr+0x766>
  40288b:	0f b6 53 02          	movzbl 0x2(%rbx),%edx
  40288f:	f7 da                	neg    %edx
  402891:	89 d0                	mov    %edx,%eax
  402893:	f7 d8                	neg    %eax
  402895:	0f 84 17 fe ff ff    	je     4026b2 <submitr+0x587>
  40289b:	b8 ff ff ff ff       	mov    $0xffffffff,%eax
  4028a0:	e9 0d fe ff ff       	jmpq   4026b2 <submitr+0x587>

00000000004028a5 <init_timeout>:
  4028a5:	85 ff                	test   %edi,%edi
  4028a7:	74 20                	je     4028c9 <init_timeout+0x24>
  4028a9:	53                   	push   %rbx
  4028aa:	89 fb                	mov    %edi,%ebx
  4028ac:	85 ff                	test   %edi,%edi
  4028ae:	78 1b                	js     4028cb <init_timeout+0x26>
  4028b0:	48 8d 35 05 f6 ff ff 	lea    -0x9fb(%rip),%rsi        # 401ebc <sigalrm_handler>
  4028b7:	bf 0e 00 00 00       	mov    $0xe,%edi
  4028bc:	e8 ef e3 ff ff       	callq  400cb0 <signal@plt>
  4028c1:	89 df                	mov    %ebx,%edi
  4028c3:	e8 b8 e3 ff ff       	callq  400c80 <alarm@plt>
  4028c8:	5b                   	pop    %rbx
  4028c9:	f3 c3                	repz retq 
  4028cb:	bb 00 00 00 00       	mov    $0x0,%ebx
  4028d0:	eb de                	jmp    4028b0 <init_timeout+0xb>

00000000004028d2 <init_driver>:
  4028d2:	41 54                	push   %r12
  4028d4:	55                   	push   %rbp
  4028d5:	53                   	push   %rbx
  4028d6:	48 83 ec 10          	sub    $0x10,%rsp
  4028da:	48 89 fd             	mov    %rdi,%rbp
  4028dd:	be 01 00 00 00       	mov    $0x1,%esi
  4028e2:	bf 0d 00 00 00       	mov    $0xd,%edi
  4028e7:	e8 c4 e3 ff ff       	callq  400cb0 <signal@plt>
  4028ec:	be 01 00 00 00       	mov    $0x1,%esi
  4028f1:	bf 1d 00 00 00       	mov    $0x1d,%edi
  4028f6:	e8 b5 e3 ff ff       	callq  400cb0 <signal@plt>
  4028fb:	be 01 00 00 00       	mov    $0x1,%esi
  402900:	bf 1d 00 00 00       	mov    $0x1d,%edi
  402905:	e8 a6 e3 ff ff       	callq  400cb0 <signal@plt>
  40290a:	ba 00 00 00 00       	mov    $0x0,%edx
  40290f:	be 01 00 00 00       	mov    $0x1,%esi
  402914:	bf 02 00 00 00       	mov    $0x2,%edi
  402919:	e8 b2 e4 ff ff       	callq  400dd0 <socket@plt>
  40291e:	85 c0                	test   %eax,%eax
  402920:	0f 88 80 00 00 00    	js     4029a6 <init_driver+0xd4>
  402926:	89 c3                	mov    %eax,%ebx
  402928:	48 8d 3d 36 0a 00 00 	lea    0xa36(%rip),%rdi        # 403365 <trans_char+0xc5>
  40292f:	e8 8c e3 ff ff       	callq  400cc0 <gethostbyname@plt>
  402934:	48 85 c0             	test   %rax,%rax
  402937:	0f 84 b5 00 00 00    	je     4029f2 <init_driver+0x120>
  40293d:	48 c7 04 24 00 00 00 	movq   $0x0,(%rsp)
  402944:	00 
  402945:	48 c7 44 24 08 00 00 	movq   $0x0,0x8(%rsp)
  40294c:	00 00 
  40294e:	66 c7 04 24 02 00    	movw   $0x2,(%rsp)
  402954:	48 8b 48 18          	mov    0x18(%rax),%rcx
  402958:	48 63 50 14          	movslq 0x14(%rax),%rdx
  40295c:	48 8d 74 24 04       	lea    0x4(%rsp),%rsi
  402961:	48 8b 39             	mov    (%rcx),%rdi
  402964:	e8 e7 e3 ff ff       	callq  400d50 <bcopy@plt>
  402969:	66 c7 44 24 02 3c a4 	movw   $0xa43c,0x2(%rsp)
  402970:	ba 10 00 00 00       	mov    $0x10,%edx
  402975:	48 89 e6             	mov    %rsp,%rsi
  402978:	89 df                	mov    %ebx,%edi
  40297a:	e8 41 e4 ff ff       	callq  400dc0 <connect@plt>
  40297f:	85 c0                	test   %eax,%eax
  402981:	0f 88 d3 00 00 00    	js     402a5a <init_driver+0x188>
  402987:	89 df                	mov    %ebx,%edi
  402989:	e8 02 e3 ff ff       	callq  400c90 <close@plt>
  40298e:	66 c7 45 00 4f 4b    	movw   $0x4b4f,0x0(%rbp)
  402994:	c6 45 02 00          	movb   $0x0,0x2(%rbp)
  402998:	b8 00 00 00 00       	mov    $0x0,%eax
  40299d:	48 83 c4 10          	add    $0x10,%rsp
  4029a1:	5b                   	pop    %rbx
  4029a2:	5d                   	pop    %rbp
  4029a3:	41 5c                	pop    %r12
  4029a5:	c3                   	retq   
  4029a6:	48 b8 45 72 72 6f 72 	movabs $0x43203a726f727245,%rax
  4029ad:	3a 20 43 
  4029b0:	48 89 45 00          	mov    %rax,0x0(%rbp)
  4029b4:	48 b8 6c 69 65 6e 74 	movabs $0x6e7520746e65696c,%rax
  4029bb:	20 75 6e 
  4029be:	48 89 45 08          	mov    %rax,0x8(%rbp)
  4029c2:	48 b8 61 62 6c 65 20 	movabs $0x206f7420656c6261,%rax
  4029c9:	74 6f 20 
  4029cc:	48 89 45 10          	mov    %rax,0x10(%rbp)
  4029d0:	48 b8 63 72 65 61 74 	movabs $0x7320657461657263,%rax
  4029d7:	65 20 73 
  4029da:	48 89 45 18          	mov    %rax,0x18(%rbp)
  4029de:	c7 45 20 6f 63 6b 65 	movl   $0x656b636f,0x20(%rbp)
  4029e5:	66 c7 45 24 74 00    	movw   $0x74,0x24(%rbp)
  4029eb:	b8 ff ff ff ff       	mov    $0xffffffff,%eax
  4029f0:	eb ab                	jmp    40299d <init_driver+0xcb>
  4029f2:	48 b8 45 72 72 6f 72 	movabs $0x44203a726f727245,%rax
  4029f9:	3a 20 44 
  4029fc:	48 89 45 00          	mov    %rax,0x0(%rbp)
  402a00:	48 b8 4e 53 20 69 73 	movabs $0x6e7520736920534e,%rax
  402a07:	20 75 6e 
  402a0a:	48 89 45 08          	mov    %rax,0x8(%rbp)
  402a0e:	48 b8 61 62 6c 65 20 	movabs $0x206f7420656c6261,%rax
  402a15:	74 6f 20 
  402a18:	48 89 45 10          	mov    %rax,0x10(%rbp)
  402a1c:	48 b8 72 65 73 6f 6c 	movabs $0x2065766c6f736572,%rax
  402a23:	76 65 20 
  402a26:	48 89 45 18          	mov    %rax,0x18(%rbp)
  402a2a:	48 b8 73 65 72 76 65 	movabs $0x6120726576726573,%rax
  402a31:	72 20 61 
  402a34:	48 89 45 20          	mov    %rax,0x20(%rbp)
  402a38:	c7 45 28 64 64 72 65 	movl   $0x65726464,0x28(%rbp)
  402a3f:	66 c7 45 2c 73 73    	movw   $0x7373,0x2c(%rbp)
  402a45:	c6 45 2e 00          	movb   $0x0,0x2e(%rbp)
  402a49:	89 df                	mov    %ebx,%edi
  402a4b:	e8 40 e2 ff ff       	callq  400c90 <close@plt>
  402a50:	b8 ff ff ff ff       	mov    $0xffffffff,%eax
  402a55:	e9 43 ff ff ff       	jmpq   40299d <init_driver+0xcb>
  402a5a:	48 b8 45 72 72 6f 72 	movabs $0x55203a726f727245,%rax
  402a61:	3a 20 55 
  402a64:	48 89 45 00          	mov    %rax,0x0(%rbp)
  402a68:	48 b8 6e 61 62 6c 65 	movabs $0x6f7420656c62616e,%rax
  402a6f:	20 74 6f 
  402a72:	48 89 45 08          	mov    %rax,0x8(%rbp)
  402a76:	48 b8 20 63 6f 6e 6e 	movabs $0x7463656e6e6f6320,%rax
  402a7d:	65 63 74 
  402a80:	48 89 45 10          	mov    %rax,0x10(%rbp)
  402a84:	48 b8 20 74 6f 20 73 	movabs $0x76726573206f7420,%rax
  402a8b:	65 72 76 
  402a8e:	48 89 45 18          	mov    %rax,0x18(%rbp)
  402a92:	66 c7 45 20 65 72    	movw   $0x7265,0x20(%rbp)
  402a98:	c6 45 22 00          	movb   $0x0,0x22(%rbp)
  402a9c:	89 df                	mov    %ebx,%edi
  402a9e:	e8 ed e1 ff ff       	callq  400c90 <close@plt>
  402aa3:	b8 ff ff ff ff       	mov    $0xffffffff,%eax
  402aa8:	e9 f0 fe ff ff       	jmpq   40299d <init_driver+0xcb>

0000000000402aad <driver_post>:
  402aad:	53                   	push   %rbx
  402aae:	4c 89 cb             	mov    %r9,%rbx
  402ab1:	45 85 c0             	test   %r8d,%r8d
  402ab4:	75 18                	jne    402ace <driver_post+0x21>
  402ab6:	48 85 ff             	test   %rdi,%rdi
  402ab9:	74 05                	je     402ac0 <driver_post+0x13>
  402abb:	80 3f 00             	cmpb   $0x0,(%rdi)
  402abe:	75 32                	jne    402af2 <driver_post+0x45>
  402ac0:	66 c7 03 4f 4b       	movw   $0x4b4f,(%rbx)
  402ac5:	c6 43 02 00          	movb   $0x0,0x2(%rbx)
  402ac9:	44 89 c0             	mov    %r8d,%eax
  402acc:	5b                   	pop    %rbx
  402acd:	c3                   	retq   
  402ace:	48 89 ce             	mov    %rcx,%rsi
  402ad1:	48 8d 3d 9b 08 00 00 	lea    0x89b(%rip),%rdi        # 403373 <trans_char+0xd3>
  402ad8:	b8 00 00 00 00       	mov    $0x0,%eax
  402add:	e8 7e e1 ff ff       	callq  400c60 <printf@plt>
  402ae2:	66 c7 03 4f 4b       	movw   $0x4b4f,(%rbx)
  402ae7:	c6 43 02 00          	movb   $0x0,0x2(%rbx)
  402aeb:	b8 00 00 00 00       	mov    $0x0,%eax
  402af0:	eb da                	jmp    402acc <driver_post+0x1f>
  402af2:	48 83 ec 08          	sub    $0x8,%rsp
  402af6:	41 51                	push   %r9
  402af8:	49 89 c9             	mov    %rcx,%r9
  402afb:	49 89 d0             	mov    %rdx,%r8
  402afe:	48 89 f9             	mov    %rdi,%rcx
  402b01:	48 89 f2             	mov    %rsi,%rdx
  402b04:	be a4 3c 00 00       	mov    $0x3ca4,%esi
  402b09:	48 8d 3d 55 08 00 00 	lea    0x855(%rip),%rdi        # 403365 <trans_char+0xc5>
  402b10:	e8 16 f6 ff ff       	callq  40212b <submitr>
  402b15:	48 83 c4 10          	add    $0x10,%rsp
  402b19:	eb b1                	jmp    402acc <driver_post+0x1f>

0000000000402b1b <check>:
  402b1b:	89 f8                	mov    %edi,%eax
  402b1d:	c1 e8 1c             	shr    $0x1c,%eax
  402b20:	85 c0                	test   %eax,%eax
  402b22:	74 1d                	je     402b41 <check+0x26>
  402b24:	b9 00 00 00 00       	mov    $0x0,%ecx
  402b29:	83 f9 1f             	cmp    $0x1f,%ecx
  402b2c:	7f 0d                	jg     402b3b <check+0x20>
  402b2e:	89 f8                	mov    %edi,%eax
  402b30:	d3 e8                	shr    %cl,%eax
  402b32:	3c 0a                	cmp    $0xa,%al
  402b34:	74 11                	je     402b47 <check+0x2c>
  402b36:	83 c1 08             	add    $0x8,%ecx
  402b39:	eb ee                	jmp    402b29 <check+0xe>
  402b3b:	b8 01 00 00 00       	mov    $0x1,%eax
  402b40:	c3                   	retq   
  402b41:	b8 00 00 00 00       	mov    $0x0,%eax
  402b46:	c3                   	retq   
  402b47:	b8 00 00 00 00       	mov    $0x0,%eax
  402b4c:	c3                   	retq   

0000000000402b4d <gencookie>:
  402b4d:	53                   	push   %rbx
  402b4e:	83 c7 01             	add    $0x1,%edi
  402b51:	e8 aa e0 ff ff       	callq  400c00 <srandom@plt>
  402b56:	e8 b5 e1 ff ff       	callq  400d10 <random@plt>
  402b5b:	89 c3                	mov    %eax,%ebx
  402b5d:	89 c7                	mov    %eax,%edi
  402b5f:	e8 b7 ff ff ff       	callq  402b1b <check>
  402b64:	85 c0                	test   %eax,%eax
  402b66:	74 ee                	je     402b56 <gencookie+0x9>
  402b68:	89 d8                	mov    %ebx,%eax
  402b6a:	5b                   	pop    %rbx
  402b6b:	c3                   	retq   
  402b6c:	0f 1f 40 00          	nopl   0x0(%rax)

0000000000402b70 <__libc_csu_init>:
  402b70:	41 57                	push   %r15
  402b72:	41 56                	push   %r14
  402b74:	41 89 ff             	mov    %edi,%r15d
  402b77:	41 55                	push   %r13
  402b79:	41 54                	push   %r12
  402b7b:	4c 8d 25 86 12 20 00 	lea    0x201286(%rip),%r12        # 603e08 <__frame_dummy_init_array_entry>
  402b82:	55                   	push   %rbp
  402b83:	48 8d 2d 86 12 20 00 	lea    0x201286(%rip),%rbp        # 603e10 <__init_array_end>
  402b8a:	53                   	push   %rbx
  402b8b:	49 89 f6             	mov    %rsi,%r14
  402b8e:	49 89 d5             	mov    %rdx,%r13
  402b91:	4c 29 e5             	sub    %r12,%rbp
  402b94:	48 83 ec 08          	sub    $0x8,%rsp
  402b98:	48 c1 fd 03          	sar    $0x3,%rbp
  402b9c:	e8 0f e0 ff ff       	callq  400bb0 <_init>
  402ba1:	48 85 ed             	test   %rbp,%rbp
  402ba4:	74 20                	je     402bc6 <__libc_csu_init+0x56>
  402ba6:	31 db                	xor    %ebx,%ebx
  402ba8:	0f 1f 84 00 00 00 00 	nopl   0x0(%rax,%rax,1)
  402baf:	00 
  402bb0:	4c 89 ea             	mov    %r13,%rdx
  402bb3:	4c 89 f6             	mov    %r14,%rsi
  402bb6:	44 89 ff             	mov    %r15d,%edi
  402bb9:	41 ff 14 dc          	callq  *(%r12,%rbx,8)
  402bbd:	48 83 c3 01          	add    $0x1,%rbx
  402bc1:	48 39 dd             	cmp    %rbx,%rbp
  402bc4:	75 ea                	jne    402bb0 <__libc_csu_init+0x40>
  402bc6:	48 83 c4 08          	add    $0x8,%rsp
  402bca:	5b                   	pop    %rbx
  402bcb:	5d                   	pop    %rbp
  402bcc:	41 5c                	pop    %r12
  402bce:	41 5d                	pop    %r13
  402bd0:	41 5e                	pop    %r14
  402bd2:	41 5f                	pop    %r15
  402bd4:	c3                   	retq   
  402bd5:	90                   	nop
  402bd6:	66 2e 0f 1f 84 00 00 	nopw   %cs:0x0(%rax,%rax,1)
  402bdd:	00 00 00 

0000000000402be0 <__libc_csu_fini>:
  402be0:	f3 c3                	repz retq 

Disassembly of section .fini:

0000000000402be4 <_fini>:
  402be4:	48 83 ec 08          	sub    $0x8,%rsp
  402be8:	48 83 c4 08          	add    $0x8,%rsp
  402bec:	c3                   	retq   
