
rtarget:     file format elf64-x86-64


Disassembly of section .init:

0000000000400bb0 <_init>:
  400bb0:	48 83 ec 08          	sub    $0x8,%rsp
  400bb4:	48 8b 05 3d 44 20 00 	mov    0x20443d(%rip),%rax        # 604ff8 <__gmon_start__>
  400bbb:	48 85 c0             	test   %rax,%rax
  400bbe:	74 02                	je     400bc2 <_init+0x12>
  400bc0:	ff d0                	callq  *%rax
  400bc2:	48 83 c4 08          	add    $0x8,%rsp
  400bc6:	c3                   	retq   

Disassembly of section .plt:

0000000000400bd0 <.plt>:
  400bd0:	ff 35 32 44 20 00    	pushq  0x204432(%rip)        # 605008 <_GLOBAL_OFFSET_TABLE_+0x8>
  400bd6:	ff 25 34 44 20 00    	jmpq   *0x204434(%rip)        # 605010 <_GLOBAL_OFFSET_TABLE_+0x10>
  400bdc:	0f 1f 40 00          	nopl   0x0(%rax)

0000000000400be0 <strcasecmp@plt>:
  400be0:	ff 25 32 44 20 00    	jmpq   *0x204432(%rip)        # 605018 <strcasecmp@GLIBC_2.2.5>
  400be6:	68 00 00 00 00       	pushq  $0x0
  400beb:	e9 e0 ff ff ff       	jmpq   400bd0 <.plt>

0000000000400bf0 <__errno_location@plt>:
  400bf0:	ff 25 2a 44 20 00    	jmpq   *0x20442a(%rip)        # 605020 <__errno_location@GLIBC_2.2.5>
  400bf6:	68 01 00 00 00       	pushq  $0x1
  400bfb:	e9 d0 ff ff ff       	jmpq   400bd0 <.plt>

0000000000400c00 <srandom@plt>:
  400c00:	ff 25 22 44 20 00    	jmpq   *0x204422(%rip)        # 605028 <srandom@GLIBC_2.2.5>
  400c06:	68 02 00 00 00       	pushq  $0x2
  400c0b:	e9 c0 ff ff ff       	jmpq   400bd0 <.plt>

0000000000400c10 <strncmp@plt>:
  400c10:	ff 25 1a 44 20 00    	jmpq   *0x20441a(%rip)        # 605030 <strncmp@GLIBC_2.2.5>
  400c16:	68 03 00 00 00       	pushq  $0x3
  400c1b:	e9 b0 ff ff ff       	jmpq   400bd0 <.plt>

0000000000400c20 <strcpy@plt>:
  400c20:	ff 25 12 44 20 00    	jmpq   *0x204412(%rip)        # 605038 <strcpy@GLIBC_2.2.5>
  400c26:	68 04 00 00 00       	pushq  $0x4
  400c2b:	e9 a0 ff ff ff       	jmpq   400bd0 <.plt>

0000000000400c30 <puts@plt>:
  400c30:	ff 25 0a 44 20 00    	jmpq   *0x20440a(%rip)        # 605040 <puts@GLIBC_2.2.5>
  400c36:	68 05 00 00 00       	pushq  $0x5
  400c3b:	e9 90 ff ff ff       	jmpq   400bd0 <.plt>

0000000000400c40 <write@plt>:
  400c40:	ff 25 02 44 20 00    	jmpq   *0x204402(%rip)        # 605048 <write@GLIBC_2.2.5>
  400c46:	68 06 00 00 00       	pushq  $0x6
  400c4b:	e9 80 ff ff ff       	jmpq   400bd0 <.plt>

0000000000400c50 <mmap@plt>:
  400c50:	ff 25 fa 43 20 00    	jmpq   *0x2043fa(%rip)        # 605050 <mmap@GLIBC_2.2.5>
  400c56:	68 07 00 00 00       	pushq  $0x7
  400c5b:	e9 70 ff ff ff       	jmpq   400bd0 <.plt>

0000000000400c60 <printf@plt>:
  400c60:	ff 25 f2 43 20 00    	jmpq   *0x2043f2(%rip)        # 605058 <printf@GLIBC_2.2.5>
  400c66:	68 08 00 00 00       	pushq  $0x8
  400c6b:	e9 60 ff ff ff       	jmpq   400bd0 <.plt>

0000000000400c70 <memset@plt>:
  400c70:	ff 25 ea 43 20 00    	jmpq   *0x2043ea(%rip)        # 605060 <memset@GLIBC_2.2.5>
  400c76:	68 09 00 00 00       	pushq  $0x9
  400c7b:	e9 50 ff ff ff       	jmpq   400bd0 <.plt>

0000000000400c80 <alarm@plt>:
  400c80:	ff 25 e2 43 20 00    	jmpq   *0x2043e2(%rip)        # 605068 <alarm@GLIBC_2.2.5>
  400c86:	68 0a 00 00 00       	pushq  $0xa
  400c8b:	e9 40 ff ff ff       	jmpq   400bd0 <.plt>

0000000000400c90 <close@plt>:
  400c90:	ff 25 da 43 20 00    	jmpq   *0x2043da(%rip)        # 605070 <close@GLIBC_2.2.5>
  400c96:	68 0b 00 00 00       	pushq  $0xb
  400c9b:	e9 30 ff ff ff       	jmpq   400bd0 <.plt>

0000000000400ca0 <read@plt>:
  400ca0:	ff 25 d2 43 20 00    	jmpq   *0x2043d2(%rip)        # 605078 <read@GLIBC_2.2.5>
  400ca6:	68 0c 00 00 00       	pushq  $0xc
  400cab:	e9 20 ff ff ff       	jmpq   400bd0 <.plt>

0000000000400cb0 <signal@plt>:
  400cb0:	ff 25 ca 43 20 00    	jmpq   *0x2043ca(%rip)        # 605080 <signal@GLIBC_2.2.5>
  400cb6:	68 0d 00 00 00       	pushq  $0xd
  400cbb:	e9 10 ff ff ff       	jmpq   400bd0 <.plt>

0000000000400cc0 <gethostbyname@plt>:
  400cc0:	ff 25 c2 43 20 00    	jmpq   *0x2043c2(%rip)        # 605088 <gethostbyname@GLIBC_2.2.5>
  400cc6:	68 0e 00 00 00       	pushq  $0xe
  400ccb:	e9 00 ff ff ff       	jmpq   400bd0 <.plt>

0000000000400cd0 <fprintf@plt>:
  400cd0:	ff 25 ba 43 20 00    	jmpq   *0x2043ba(%rip)        # 605090 <fprintf@GLIBC_2.2.5>
  400cd6:	68 0f 00 00 00       	pushq  $0xf
  400cdb:	e9 f0 fe ff ff       	jmpq   400bd0 <.plt>

0000000000400ce0 <strtol@plt>:
  400ce0:	ff 25 b2 43 20 00    	jmpq   *0x2043b2(%rip)        # 605098 <strtol@GLIBC_2.2.5>
  400ce6:	68 10 00 00 00       	pushq  $0x10
  400ceb:	e9 e0 fe ff ff       	jmpq   400bd0 <.plt>

0000000000400cf0 <memcpy@plt>:
  400cf0:	ff 25 aa 43 20 00    	jmpq   *0x2043aa(%rip)        # 6050a0 <memcpy@GLIBC_2.14>
  400cf6:	68 11 00 00 00       	pushq  $0x11
  400cfb:	e9 d0 fe ff ff       	jmpq   400bd0 <.plt>

0000000000400d00 <time@plt>:
  400d00:	ff 25 a2 43 20 00    	jmpq   *0x2043a2(%rip)        # 6050a8 <time@GLIBC_2.2.5>
  400d06:	68 12 00 00 00       	pushq  $0x12
  400d0b:	e9 c0 fe ff ff       	jmpq   400bd0 <.plt>

0000000000400d10 <random@plt>:
  400d10:	ff 25 9a 43 20 00    	jmpq   *0x20439a(%rip)        # 6050b0 <random@GLIBC_2.2.5>
  400d16:	68 13 00 00 00       	pushq  $0x13
  400d1b:	e9 b0 fe ff ff       	jmpq   400bd0 <.plt>

0000000000400d20 <_IO_getc@plt>:
  400d20:	ff 25 92 43 20 00    	jmpq   *0x204392(%rip)        # 6050b8 <_IO_getc@GLIBC_2.2.5>
  400d26:	68 14 00 00 00       	pushq  $0x14
  400d2b:	e9 a0 fe ff ff       	jmpq   400bd0 <.plt>

0000000000400d30 <__isoc99_sscanf@plt>:
  400d30:	ff 25 8a 43 20 00    	jmpq   *0x20438a(%rip)        # 6050c0 <__isoc99_sscanf@GLIBC_2.7>
  400d36:	68 15 00 00 00       	pushq  $0x15
  400d3b:	e9 90 fe ff ff       	jmpq   400bd0 <.plt>

0000000000400d40 <munmap@plt>:
  400d40:	ff 25 82 43 20 00    	jmpq   *0x204382(%rip)        # 6050c8 <munmap@GLIBC_2.2.5>
  400d46:	68 16 00 00 00       	pushq  $0x16
  400d4b:	e9 80 fe ff ff       	jmpq   400bd0 <.plt>

0000000000400d50 <bcopy@plt>:
  400d50:	ff 25 7a 43 20 00    	jmpq   *0x20437a(%rip)        # 6050d0 <bcopy@GLIBC_2.2.5>
  400d56:	68 17 00 00 00       	pushq  $0x17
  400d5b:	e9 70 fe ff ff       	jmpq   400bd0 <.plt>

0000000000400d60 <fopen@plt>:
  400d60:	ff 25 72 43 20 00    	jmpq   *0x204372(%rip)        # 6050d8 <fopen@GLIBC_2.2.5>
  400d66:	68 18 00 00 00       	pushq  $0x18
  400d6b:	e9 60 fe ff ff       	jmpq   400bd0 <.plt>

0000000000400d70 <getopt@plt>:
  400d70:	ff 25 6a 43 20 00    	jmpq   *0x20436a(%rip)        # 6050e0 <getopt@GLIBC_2.2.5>
  400d76:	68 19 00 00 00       	pushq  $0x19
  400d7b:	e9 50 fe ff ff       	jmpq   400bd0 <.plt>

0000000000400d80 <strtoul@plt>:
  400d80:	ff 25 62 43 20 00    	jmpq   *0x204362(%rip)        # 6050e8 <strtoul@GLIBC_2.2.5>
  400d86:	68 1a 00 00 00       	pushq  $0x1a
  400d8b:	e9 40 fe ff ff       	jmpq   400bd0 <.plt>

0000000000400d90 <gethostname@plt>:
  400d90:	ff 25 5a 43 20 00    	jmpq   *0x20435a(%rip)        # 6050f0 <gethostname@GLIBC_2.2.5>
  400d96:	68 1b 00 00 00       	pushq  $0x1b
  400d9b:	e9 30 fe ff ff       	jmpq   400bd0 <.plt>

0000000000400da0 <sprintf@plt>:
  400da0:	ff 25 52 43 20 00    	jmpq   *0x204352(%rip)        # 6050f8 <sprintf@GLIBC_2.2.5>
  400da6:	68 1c 00 00 00       	pushq  $0x1c
  400dab:	e9 20 fe ff ff       	jmpq   400bd0 <.plt>

0000000000400db0 <exit@plt>:
  400db0:	ff 25 4a 43 20 00    	jmpq   *0x20434a(%rip)        # 605100 <exit@GLIBC_2.2.5>
  400db6:	68 1d 00 00 00       	pushq  $0x1d
  400dbb:	e9 10 fe ff ff       	jmpq   400bd0 <.plt>

0000000000400dc0 <connect@plt>:
  400dc0:	ff 25 42 43 20 00    	jmpq   *0x204342(%rip)        # 605108 <connect@GLIBC_2.2.5>
  400dc6:	68 1e 00 00 00       	pushq  $0x1e
  400dcb:	e9 00 fe ff ff       	jmpq   400bd0 <.plt>

0000000000400dd0 <socket@plt>:
  400dd0:	ff 25 3a 43 20 00    	jmpq   *0x20433a(%rip)        # 605110 <socket@GLIBC_2.2.5>
  400dd6:	68 1f 00 00 00       	pushq  $0x1f
  400ddb:	e9 f0 fd ff ff       	jmpq   400bd0 <.plt>

Disassembly of section .text:

0000000000400de0 <_start>:
  400de0:	31 ed                	xor    %ebp,%ebp
  400de2:	49 89 d1             	mov    %rdx,%r9
  400de5:	5e                   	pop    %rsi
  400de6:	48 89 e2             	mov    %rsp,%rdx
  400de9:	48 83 e4 f0          	and    $0xfffffffffffffff0,%rsp
  400ded:	50                   	push   %rax
  400dee:	54                   	push   %rsp
  400def:	49 c7 c0 00 2d 40 00 	mov    $0x402d00,%r8
  400df6:	48 c7 c1 90 2c 40 00 	mov    $0x402c90,%rcx
  400dfd:	48 c7 c7 8d 10 40 00 	mov    $0x40108d,%rdi
  400e04:	ff 15 e6 41 20 00    	callq  *0x2041e6(%rip)        # 604ff0 <__libc_start_main@GLIBC_2.2.5>
  400e0a:	f4                   	hlt    
  400e0b:	0f 1f 44 00 00       	nopl   0x0(%rax,%rax,1)

0000000000400e10 <deregister_tm_clones>:
  400e10:	b8 97 54 60 00       	mov    $0x605497,%eax
  400e15:	55                   	push   %rbp
  400e16:	48 2d 90 54 60 00    	sub    $0x605490,%rax
  400e1c:	48 83 f8 0e          	cmp    $0xe,%rax
  400e20:	48 89 e5             	mov    %rsp,%rbp
  400e23:	76 1b                	jbe    400e40 <deregister_tm_clones+0x30>
  400e25:	b8 00 00 00 00       	mov    $0x0,%eax
  400e2a:	48 85 c0             	test   %rax,%rax
  400e2d:	74 11                	je     400e40 <deregister_tm_clones+0x30>
  400e2f:	5d                   	pop    %rbp
  400e30:	bf 90 54 60 00       	mov    $0x605490,%edi
  400e35:	ff e0                	jmpq   *%rax
  400e37:	66 0f 1f 84 00 00 00 	nopw   0x0(%rax,%rax,1)
  400e3e:	00 00 
  400e40:	5d                   	pop    %rbp
  400e41:	c3                   	retq   
  400e42:	0f 1f 40 00          	nopl   0x0(%rax)
  400e46:	66 2e 0f 1f 84 00 00 	nopw   %cs:0x0(%rax,%rax,1)
  400e4d:	00 00 00 

0000000000400e50 <register_tm_clones>:
  400e50:	be 90 54 60 00       	mov    $0x605490,%esi
  400e55:	55                   	push   %rbp
  400e56:	48 81 ee 90 54 60 00 	sub    $0x605490,%rsi
  400e5d:	48 c1 fe 03          	sar    $0x3,%rsi
  400e61:	48 89 e5             	mov    %rsp,%rbp
  400e64:	48 89 f0             	mov    %rsi,%rax
  400e67:	48 c1 e8 3f          	shr    $0x3f,%rax
  400e6b:	48 01 c6             	add    %rax,%rsi
  400e6e:	48 d1 fe             	sar    %rsi
  400e71:	74 15                	je     400e88 <register_tm_clones+0x38>
  400e73:	b8 00 00 00 00       	mov    $0x0,%eax
  400e78:	48 85 c0             	test   %rax,%rax
  400e7b:	74 0b                	je     400e88 <register_tm_clones+0x38>
  400e7d:	5d                   	pop    %rbp
  400e7e:	bf 90 54 60 00       	mov    $0x605490,%edi
  400e83:	ff e0                	jmpq   *%rax
  400e85:	0f 1f 00             	nopl   (%rax)
  400e88:	5d                   	pop    %rbp
  400e89:	c3                   	retq   
  400e8a:	66 0f 1f 44 00 00    	nopw   0x0(%rax,%rax,1)

0000000000400e90 <__do_global_dtors_aux>:
  400e90:	80 3d 31 46 20 00 00 	cmpb   $0x0,0x204631(%rip)        # 6054c8 <completed.6972>
  400e97:	75 11                	jne    400eaa <__do_global_dtors_aux+0x1a>
  400e99:	55                   	push   %rbp
  400e9a:	48 89 e5             	mov    %rsp,%rbp
  400e9d:	e8 6e ff ff ff       	callq  400e10 <deregister_tm_clones>
  400ea2:	5d                   	pop    %rbp
  400ea3:	c6 05 1e 46 20 00 01 	movb   $0x1,0x20461e(%rip)        # 6054c8 <completed.6972>
  400eaa:	f3 c3                	repz retq 
  400eac:	0f 1f 40 00          	nopl   0x0(%rax)

0000000000400eb0 <frame_dummy>:
  400eb0:	bf 18 4e 60 00       	mov    $0x604e18,%edi
  400eb5:	48 83 3f 00          	cmpq   $0x0,(%rdi)
  400eb9:	75 05                	jne    400ec0 <frame_dummy+0x10>
  400ebb:	eb 93                	jmp    400e50 <register_tm_clones>
  400ebd:	0f 1f 00             	nopl   (%rax)
  400ec0:	b8 00 00 00 00       	mov    $0x0,%eax
  400ec5:	48 85 c0             	test   %rax,%rax
  400ec8:	74 f1                	je     400ebb <frame_dummy+0xb>
  400eca:	55                   	push   %rbp
  400ecb:	48 89 e5             	mov    %rsp,%rbp
  400ece:	ff d0                	callq  *%rax
  400ed0:	5d                   	pop    %rbp
  400ed1:	e9 7a ff ff ff       	jmpq   400e50 <register_tm_clones>

0000000000400ed6 <usage>:
  400ed6:	48 83 ec 08          	sub    $0x8,%rsp
  400eda:	48 89 fe             	mov    %rdi,%rsi
  400edd:	83 3d 24 46 20 00 00 	cmpl   $0x0,0x204624(%rip)        # 605508 <is_checker>
  400ee4:	74 4b                	je     400f31 <usage+0x5b>
  400ee6:	48 8d 3d 2b 1e 00 00 	lea    0x1e2b(%rip),%rdi        # 402d18 <_IO_stdin_used+0x8>
  400eed:	b8 00 00 00 00       	mov    $0x0,%eax
  400ef2:	e8 69 fd ff ff       	callq  400c60 <printf@plt>
  400ef7:	48 8d 3d 52 1e 00 00 	lea    0x1e52(%rip),%rdi        # 402d50 <_IO_stdin_used+0x40>
  400efe:	e8 2d fd ff ff       	callq  400c30 <puts@plt>
  400f03:	48 8d 3d 7e 1f 00 00 	lea    0x1f7e(%rip),%rdi        # 402e88 <_IO_stdin_used+0x178>
  400f0a:	e8 21 fd ff ff       	callq  400c30 <puts@plt>
  400f0f:	48 8d 3d 62 1e 00 00 	lea    0x1e62(%rip),%rdi        # 402d78 <_IO_stdin_used+0x68>
  400f16:	e8 15 fd ff ff       	callq  400c30 <puts@plt>
  400f1b:	48 8d 3d 80 1f 00 00 	lea    0x1f80(%rip),%rdi        # 402ea2 <_IO_stdin_used+0x192>
  400f22:	e8 09 fd ff ff       	callq  400c30 <puts@plt>
  400f27:	bf 00 00 00 00       	mov    $0x0,%edi
  400f2c:	e8 7f fe ff ff       	callq  400db0 <exit@plt>
  400f31:	48 8d 3d 86 1f 00 00 	lea    0x1f86(%rip),%rdi        # 402ebe <_IO_stdin_used+0x1ae>
  400f38:	b8 00 00 00 00       	mov    $0x0,%eax
  400f3d:	e8 1e fd ff ff       	callq  400c60 <printf@plt>
  400f42:	48 8d 3d 57 1e 00 00 	lea    0x1e57(%rip),%rdi        # 402da0 <_IO_stdin_used+0x90>
  400f49:	e8 e2 fc ff ff       	callq  400c30 <puts@plt>
  400f4e:	48 8d 3d 73 1e 00 00 	lea    0x1e73(%rip),%rdi        # 402dc8 <_IO_stdin_used+0xb8>
  400f55:	e8 d6 fc ff ff       	callq  400c30 <puts@plt>
  400f5a:	48 8d 3d 7b 1f 00 00 	lea    0x1f7b(%rip),%rdi        # 402edc <_IO_stdin_used+0x1cc>
  400f61:	e8 ca fc ff ff       	callq  400c30 <puts@plt>
  400f66:	eb bf                	jmp    400f27 <usage+0x51>

0000000000400f68 <initialize_target>:
  400f68:	55                   	push   %rbp
  400f69:	53                   	push   %rbx
  400f6a:	48 81 ec 08 21 00 00 	sub    $0x2108,%rsp
  400f71:	89 f5                	mov    %esi,%ebp
  400f73:	89 3d 7f 45 20 00    	mov    %edi,0x20457f(%rip)        # 6054f8 <check_level>
  400f79:	8b 3d b1 41 20 00    	mov    0x2041b1(%rip),%edi        # 605130 <target_id>
  400f7f:	e8 eb 1c 00 00       	callq  402c6f <gencookie>
  400f84:	89 05 7a 45 20 00    	mov    %eax,0x20457a(%rip)        # 605504 <cookie>
  400f8a:	89 c7                	mov    %eax,%edi
  400f8c:	e8 de 1c 00 00       	callq  402c6f <gencookie>
  400f91:	89 05 69 45 20 00    	mov    %eax,0x204569(%rip)        # 605500 <authkey>
  400f97:	8b 05 93 41 20 00    	mov    0x204193(%rip),%eax        # 605130 <target_id>
  400f9d:	8d 78 01             	lea    0x1(%rax),%edi
  400fa0:	e8 5b fc ff ff       	callq  400c00 <srandom@plt>
  400fa5:	e8 66 fd ff ff       	callq  400d10 <random@plt>
  400faa:	89 c7                	mov    %eax,%edi
  400fac:	e8 c3 02 00 00       	callq  401274 <scramble>
  400fb1:	89 c3                	mov    %eax,%ebx
  400fb3:	85 ed                	test   %ebp,%ebp
  400fb5:	75 3d                	jne    400ff4 <initialize_target+0x8c>
  400fb7:	b8 00 00 00 00       	mov    $0x0,%eax
  400fbc:	01 d8                	add    %ebx,%eax
  400fbe:	0f b7 c0             	movzwl %ax,%eax
  400fc1:	8d 04 c5 00 01 00 00 	lea    0x100(,%rax,8),%eax
  400fc8:	89 c0                	mov    %eax,%eax
  400fca:	48 89 05 af 44 20 00 	mov    %rax,0x2044af(%rip)        # 605480 <buf_offset>
  400fd1:	c6 05 50 51 20 00 72 	movb   $0x72,0x205150(%rip)        # 606128 <target_prefix>
  400fd8:	83 3d a9 44 20 00 00 	cmpl   $0x0,0x2044a9(%rip)        # 605488 <notify>
  400fdf:	74 09                	je     400fea <initialize_target+0x82>
  400fe1:	83 3d 20 45 20 00 00 	cmpl   $0x0,0x204520(%rip)        # 605508 <is_checker>
  400fe8:	74 22                	je     40100c <initialize_target+0xa4>
  400fea:	48 81 c4 08 21 00 00 	add    $0x2108,%rsp
  400ff1:	5b                   	pop    %rbx
  400ff2:	5d                   	pop    %rbp
  400ff3:	c3                   	retq   
  400ff4:	bf 00 00 00 00       	mov    $0x0,%edi
  400ff9:	e8 02 fd ff ff       	callq  400d00 <time@plt>
  400ffe:	89 c7                	mov    %eax,%edi
  401000:	e8 fb fb ff ff       	callq  400c00 <srandom@plt>
  401005:	e8 06 fd ff ff       	callq  400d10 <random@plt>
  40100a:	eb b0                	jmp    400fbc <initialize_target+0x54>
  40100c:	48 89 e7             	mov    %rsp,%rdi
  40100f:	be 00 01 00 00       	mov    $0x100,%esi
  401014:	e8 77 fd ff ff       	callq  400d90 <gethostname@plt>
  401019:	89 c3                	mov    %eax,%ebx
  40101b:	85 c0                	test   %eax,%eax
  40101d:	75 24                	jne    401043 <initialize_target+0xdb>
  40101f:	48 63 c3             	movslq %ebx,%rax
  401022:	48 8d 15 37 41 20 00 	lea    0x204137(%rip),%rdx        # 605160 <host_table>
  401029:	48 8b 3c c2          	mov    (%rdx,%rax,8),%rdi
  40102d:	48 85 ff             	test   %rdi,%rdi
  401030:	74 27                	je     401059 <initialize_target+0xf1>
  401032:	48 89 e6             	mov    %rsp,%rsi
  401035:	e8 a6 fb ff ff       	callq  400be0 <strcasecmp@plt>
  40103a:	85 c0                	test   %eax,%eax
  40103c:	74 1b                	je     401059 <initialize_target+0xf1>
  40103e:	83 c3 01             	add    $0x1,%ebx
  401041:	eb dc                	jmp    40101f <initialize_target+0xb7>
  401043:	48 8d 3d ae 1d 00 00 	lea    0x1dae(%rip),%rdi        # 402df8 <_IO_stdin_used+0xe8>
  40104a:	e8 e1 fb ff ff       	callq  400c30 <puts@plt>
  40104f:	bf 08 00 00 00       	mov    $0x8,%edi
  401054:	e8 57 fd ff ff       	callq  400db0 <exit@plt>
  401059:	48 8d bc 24 00 01 00 	lea    0x100(%rsp),%rdi
  401060:	00 
  401061:	e8 8e 19 00 00       	callq  4029f4 <init_driver>
  401066:	85 c0                	test   %eax,%eax
  401068:	79 80                	jns    400fea <initialize_target+0x82>
  40106a:	48 8d b4 24 00 01 00 	lea    0x100(%rsp),%rsi
  401071:	00 
  401072:	48 8d 3d b7 1d 00 00 	lea    0x1db7(%rip),%rdi        # 402e30 <_IO_stdin_used+0x120>
  401079:	b8 00 00 00 00       	mov    $0x0,%eax
  40107e:	e8 dd fb ff ff       	callq  400c60 <printf@plt>
  401083:	bf 08 00 00 00       	mov    $0x8,%edi
  401088:	e8 23 fd ff ff       	callq  400db0 <exit@plt>

000000000040108d <main>:
  40108d:	41 56                	push   %r14
  40108f:	41 55                	push   %r13
  401091:	41 54                	push   %r12
  401093:	55                   	push   %rbp
  401094:	53                   	push   %rbx
  401095:	41 89 fc             	mov    %edi,%r12d
  401098:	48 89 f3             	mov    %rsi,%rbx
  40109b:	48 c7 c6 9a 1d 40 00 	mov    $0x401d9a,%rsi
  4010a2:	bf 0b 00 00 00       	mov    $0xb,%edi
  4010a7:	e8 04 fc ff ff       	callq  400cb0 <signal@plt>
  4010ac:	48 c7 c6 46 1d 40 00 	mov    $0x401d46,%rsi
  4010b3:	bf 07 00 00 00       	mov    $0x7,%edi
  4010b8:	e8 f3 fb ff ff       	callq  400cb0 <signal@plt>
  4010bd:	48 c7 c6 ee 1d 40 00 	mov    $0x401dee,%rsi
  4010c4:	bf 04 00 00 00       	mov    $0x4,%edi
  4010c9:	e8 e2 fb ff ff       	callq  400cb0 <signal@plt>
  4010ce:	83 3d 33 44 20 00 00 	cmpl   $0x0,0x204433(%rip)        # 605508 <is_checker>
  4010d5:	75 58                	jne    40112f <main+0xa2>
  4010d7:	48 8d 2d 17 1e 00 00 	lea    0x1e17(%rip),%rbp        # 402ef5 <_IO_stdin_used+0x1e5>
  4010de:	48 8b 05 bb 43 20 00 	mov    0x2043bb(%rip),%rax        # 6054a0 <stdin@@GLIBC_2.2.5>
  4010e5:	48 89 05 04 44 20 00 	mov    %rax,0x204404(%rip)        # 6054f0 <infile>
  4010ec:	41 bd 00 00 00 00    	mov    $0x0,%r13d
  4010f2:	41 be 00 00 00 00    	mov    $0x0,%r14d
  4010f8:	48 89 ea             	mov    %rbp,%rdx
  4010fb:	48 89 de             	mov    %rbx,%rsi
  4010fe:	44 89 e7             	mov    %r12d,%edi
  401101:	e8 6a fc ff ff       	callq  400d70 <getopt@plt>
  401106:	3c ff                	cmp    $0xff,%al
  401108:	0f 84 f8 00 00 00    	je     401206 <main+0x179>
  40110e:	0f be f0             	movsbl %al,%esi
  401111:	83 e8 61             	sub    $0x61,%eax
  401114:	3c 10                	cmp    $0x10,%al
  401116:	0f 87 d1 00 00 00    	ja     4011ed <main+0x160>
  40111c:	0f b6 c0             	movzbl %al,%eax
  40111f:	48 8d 15 1a 1e 00 00 	lea    0x1e1a(%rip),%rdx        # 402f40 <_IO_stdin_used+0x230>
  401126:	48 63 04 82          	movslq (%rdx,%rax,4),%rax
  40112a:	48 01 d0             	add    %rdx,%rax
  40112d:	ff e0                	jmpq   *%rax
  40112f:	48 c7 c6 42 1e 40 00 	mov    $0x401e42,%rsi
  401136:	bf 0e 00 00 00       	mov    $0xe,%edi
  40113b:	e8 70 fb ff ff       	callq  400cb0 <signal@plt>
  401140:	bf 05 00 00 00       	mov    $0x5,%edi
  401145:	e8 36 fb ff ff       	callq  400c80 <alarm@plt>
  40114a:	48 8d 2d a9 1d 00 00 	lea    0x1da9(%rip),%rbp        # 402efa <_IO_stdin_used+0x1ea>
  401151:	eb 8b                	jmp    4010de <main+0x51>
  401153:	48 8b 3b             	mov    (%rbx),%rdi
  401156:	e8 7b fd ff ff       	callq  400ed6 <usage>
  40115b:	48 8d 35 23 20 00 00 	lea    0x2023(%rip),%rsi        # 403185 <_IO_stdin_used+0x475>
  401162:	48 8b 3d 3f 43 20 00 	mov    0x20433f(%rip),%rdi        # 6054a8 <optarg@@GLIBC_2.2.5>
  401169:	e8 f2 fb ff ff       	callq  400d60 <fopen@plt>
  40116e:	48 89 05 7b 43 20 00 	mov    %rax,0x20437b(%rip)        # 6054f0 <infile>
  401175:	48 85 c0             	test   %rax,%rax
  401178:	0f 85 7a ff ff ff    	jne    4010f8 <main+0x6b>
  40117e:	48 8b 15 23 43 20 00 	mov    0x204323(%rip),%rdx        # 6054a8 <optarg@@GLIBC_2.2.5>
  401185:	48 8d 35 76 1d 00 00 	lea    0x1d76(%rip),%rsi        # 402f02 <_IO_stdin_used+0x1f2>
  40118c:	48 8b 3d 2d 43 20 00 	mov    0x20432d(%rip),%rdi        # 6054c0 <stderr@@GLIBC_2.2.5>
  401193:	e8 38 fb ff ff       	callq  400cd0 <fprintf@plt>
  401198:	b8 01 00 00 00       	mov    $0x1,%eax
  40119d:	e9 c9 00 00 00       	jmpq   40126b <main+0x1de>
  4011a2:	ba 10 00 00 00       	mov    $0x10,%edx
  4011a7:	be 00 00 00 00       	mov    $0x0,%esi
  4011ac:	48 8b 3d f5 42 20 00 	mov    0x2042f5(%rip),%rdi        # 6054a8 <optarg@@GLIBC_2.2.5>
  4011b3:	e8 c8 fb ff ff       	callq  400d80 <strtoul@plt>
  4011b8:	41 89 c6             	mov    %eax,%r14d
  4011bb:	e9 38 ff ff ff       	jmpq   4010f8 <main+0x6b>
  4011c0:	ba 0a 00 00 00       	mov    $0xa,%edx
  4011c5:	be 00 00 00 00       	mov    $0x0,%esi
  4011ca:	48 8b 3d d7 42 20 00 	mov    0x2042d7(%rip),%rdi        # 6054a8 <optarg@@GLIBC_2.2.5>
  4011d1:	e8 0a fb ff ff       	callq  400ce0 <strtol@plt>
  4011d6:	41 89 c5             	mov    %eax,%r13d
  4011d9:	e9 1a ff ff ff       	jmpq   4010f8 <main+0x6b>
  4011de:	c7 05 a0 42 20 00 00 	movl   $0x0,0x2042a0(%rip)        # 605488 <notify>
  4011e5:	00 00 00 
  4011e8:	e9 0b ff ff ff       	jmpq   4010f8 <main+0x6b>
  4011ed:	48 8d 3d 2b 1d 00 00 	lea    0x1d2b(%rip),%rdi        # 402f1f <_IO_stdin_used+0x20f>
  4011f4:	b8 00 00 00 00       	mov    $0x0,%eax
  4011f9:	e8 62 fa ff ff       	callq  400c60 <printf@plt>
  4011fe:	48 8b 3b             	mov    (%rbx),%rdi
  401201:	e8 d0 fc ff ff       	callq  400ed6 <usage>
  401206:	be 01 00 00 00       	mov    $0x1,%esi
  40120b:	44 89 ef             	mov    %r13d,%edi
  40120e:	e8 55 fd ff ff       	callq  400f68 <initialize_target>
  401213:	83 3d ee 42 20 00 00 	cmpl   $0x0,0x2042ee(%rip)        # 605508 <is_checker>
  40121a:	74 27                	je     401243 <main+0x1b6>
  40121c:	44 3b 35 dd 42 20 00 	cmp    0x2042dd(%rip),%r14d        # 605500 <authkey>
  401223:	74 1e                	je     401243 <main+0x1b6>
  401225:	44 89 f6             	mov    %r14d,%esi
  401228:	48 8d 3d 29 1c 00 00 	lea    0x1c29(%rip),%rdi        # 402e58 <_IO_stdin_used+0x148>
  40122f:	b8 00 00 00 00       	mov    $0x0,%eax
  401234:	e8 27 fa ff ff       	callq  400c60 <printf@plt>
  401239:	b8 00 00 00 00       	mov    $0x0,%eax
  40123e:	e8 d3 07 00 00       	callq  401a16 <check_fail>
  401243:	8b 35 bb 42 20 00    	mov    0x2042bb(%rip),%esi        # 605504 <cookie>
  401249:	48 8d 3d e2 1c 00 00 	lea    0x1ce2(%rip),%rdi        # 402f32 <_IO_stdin_used+0x222>
  401250:	b8 00 00 00 00       	mov    $0x0,%eax
  401255:	e8 06 fa ff ff       	callq  400c60 <printf@plt>
  40125a:	48 8b 3d 1f 42 20 00 	mov    0x20421f(%rip),%rdi        # 605480 <buf_offset>
  401261:	e8 2e 0c 00 00       	callq  401e94 <launch>
  401266:	b8 00 00 00 00       	mov    $0x0,%eax
  40126b:	5b                   	pop    %rbx
  40126c:	5d                   	pop    %rbp
  40126d:	41 5c                	pop    %r12
  40126f:	41 5d                	pop    %r13
  401271:	41 5e                	pop    %r14
  401273:	c3                   	retq   

0000000000401274 <scramble>:
  401274:	b8 00 00 00 00       	mov    $0x0,%eax
  401279:	eb 11                	jmp    40128c <scramble+0x18>
  40127b:	69 d0 17 49 00 00    	imul   $0x4917,%eax,%edx
  401281:	01 fa                	add    %edi,%edx
  401283:	89 c1                	mov    %eax,%ecx
  401285:	89 54 8c d0          	mov    %edx,-0x30(%rsp,%rcx,4)
  401289:	83 c0 01             	add    $0x1,%eax
  40128c:	83 f8 09             	cmp    $0x9,%eax
  40128f:	76 ea                	jbe    40127b <scramble+0x7>
  401291:	8b 44 24 e8          	mov    -0x18(%rsp),%eax
  401295:	69 c0 0c 85 00 00    	imul   $0x850c,%eax,%eax
  40129b:	89 44 24 e8          	mov    %eax,-0x18(%rsp)
  40129f:	8b 44 24 dc          	mov    -0x24(%rsp),%eax
  4012a3:	69 c0 54 90 00 00    	imul   $0x9054,%eax,%eax
  4012a9:	89 44 24 dc          	mov    %eax,-0x24(%rsp)
  4012ad:	8b 44 24 f0          	mov    -0x10(%rsp),%eax
  4012b1:	69 c0 46 c3 00 00    	imul   $0xc346,%eax,%eax
  4012b7:	89 44 24 f0          	mov    %eax,-0x10(%rsp)
  4012bb:	8b 44 24 f4          	mov    -0xc(%rsp),%eax
  4012bf:	69 c0 94 9b 00 00    	imul   $0x9b94,%eax,%eax
  4012c5:	89 44 24 f4          	mov    %eax,-0xc(%rsp)
  4012c9:	8b 44 24 e8          	mov    -0x18(%rsp),%eax
  4012cd:	69 c0 e7 90 00 00    	imul   $0x90e7,%eax,%eax
  4012d3:	89 44 24 e8          	mov    %eax,-0x18(%rsp)
  4012d7:	8b 44 24 dc          	mov    -0x24(%rsp),%eax
  4012db:	69 c0 ec de 00 00    	imul   $0xdeec,%eax,%eax
  4012e1:	89 44 24 dc          	mov    %eax,-0x24(%rsp)
  4012e5:	8b 44 24 d8          	mov    -0x28(%rsp),%eax
  4012e9:	69 c0 f5 7f 00 00    	imul   $0x7ff5,%eax,%eax
  4012ef:	89 44 24 d8          	mov    %eax,-0x28(%rsp)
  4012f3:	8b 44 24 d0          	mov    -0x30(%rsp),%eax
  4012f7:	69 c0 16 1c 00 00    	imul   $0x1c16,%eax,%eax
  4012fd:	89 44 24 d0          	mov    %eax,-0x30(%rsp)
  401301:	8b 44 24 dc          	mov    -0x24(%rsp),%eax
  401305:	69 c0 51 50 00 00    	imul   $0x5051,%eax,%eax
  40130b:	89 44 24 dc          	mov    %eax,-0x24(%rsp)
  40130f:	8b 44 24 dc          	mov    -0x24(%rsp),%eax
  401313:	69 c0 39 82 00 00    	imul   $0x8239,%eax,%eax
  401319:	89 44 24 dc          	mov    %eax,-0x24(%rsp)
  40131d:	8b 44 24 ec          	mov    -0x14(%rsp),%eax
  401321:	69 c0 8b cf 00 00    	imul   $0xcf8b,%eax,%eax
  401327:	89 44 24 ec          	mov    %eax,-0x14(%rsp)
  40132b:	8b 44 24 dc          	mov    -0x24(%rsp),%eax
  40132f:	69 c0 0d 34 00 00    	imul   $0x340d,%eax,%eax
  401335:	89 44 24 dc          	mov    %eax,-0x24(%rsp)
  401339:	8b 44 24 f4          	mov    -0xc(%rsp),%eax
  40133d:	69 c0 82 5d 00 00    	imul   $0x5d82,%eax,%eax
  401343:	89 44 24 f4          	mov    %eax,-0xc(%rsp)
  401347:	8b 44 24 f4          	mov    -0xc(%rsp),%eax
  40134b:	69 c0 1a ca 00 00    	imul   $0xca1a,%eax,%eax
  401351:	89 44 24 f4          	mov    %eax,-0xc(%rsp)
  401355:	8b 44 24 dc          	mov    -0x24(%rsp),%eax
  401359:	69 c0 a0 06 00 00    	imul   $0x6a0,%eax,%eax
  40135f:	89 44 24 dc          	mov    %eax,-0x24(%rsp)
  401363:	8b 44 24 d8          	mov    -0x28(%rsp),%eax
  401367:	69 c0 ba 83 00 00    	imul   $0x83ba,%eax,%eax
  40136d:	89 44 24 d8          	mov    %eax,-0x28(%rsp)
  401371:	8b 44 24 f0          	mov    -0x10(%rsp),%eax
  401375:	69 c0 1d 21 00 00    	imul   $0x211d,%eax,%eax
  40137b:	89 44 24 f0          	mov    %eax,-0x10(%rsp)
  40137f:	8b 44 24 dc          	mov    -0x24(%rsp),%eax
  401383:	69 c0 38 2b 00 00    	imul   $0x2b38,%eax,%eax
  401389:	89 44 24 dc          	mov    %eax,-0x24(%rsp)
  40138d:	8b 44 24 e8          	mov    -0x18(%rsp),%eax
  401391:	69 c0 fe db 00 00    	imul   $0xdbfe,%eax,%eax
  401397:	89 44 24 e8          	mov    %eax,-0x18(%rsp)
  40139b:	8b 44 24 e4          	mov    -0x1c(%rsp),%eax
  40139f:	69 c0 d5 13 00 00    	imul   $0x13d5,%eax,%eax
  4013a5:	89 44 24 e4          	mov    %eax,-0x1c(%rsp)
  4013a9:	8b 44 24 ec          	mov    -0x14(%rsp),%eax
  4013ad:	69 c0 d4 2c 00 00    	imul   $0x2cd4,%eax,%eax
  4013b3:	89 44 24 ec          	mov    %eax,-0x14(%rsp)
  4013b7:	8b 44 24 e0          	mov    -0x20(%rsp),%eax
  4013bb:	69 c0 5b 5b 00 00    	imul   $0x5b5b,%eax,%eax
  4013c1:	89 44 24 e0          	mov    %eax,-0x20(%rsp)
  4013c5:	8b 44 24 e4          	mov    -0x1c(%rsp),%eax
  4013c9:	69 c0 45 22 00 00    	imul   $0x2245,%eax,%eax
  4013cf:	89 44 24 e4          	mov    %eax,-0x1c(%rsp)
  4013d3:	8b 44 24 dc          	mov    -0x24(%rsp),%eax
  4013d7:	69 c0 66 a9 00 00    	imul   $0xa966,%eax,%eax
  4013dd:	89 44 24 dc          	mov    %eax,-0x24(%rsp)
  4013e1:	8b 44 24 e4          	mov    -0x1c(%rsp),%eax
  4013e5:	69 c0 c2 3a 00 00    	imul   $0x3ac2,%eax,%eax
  4013eb:	89 44 24 e4          	mov    %eax,-0x1c(%rsp)
  4013ef:	8b 44 24 d4          	mov    -0x2c(%rsp),%eax
  4013f3:	69 c0 42 7c 00 00    	imul   $0x7c42,%eax,%eax
  4013f9:	89 44 24 d4          	mov    %eax,-0x2c(%rsp)
  4013fd:	8b 44 24 dc          	mov    -0x24(%rsp),%eax
  401401:	69 c0 0c 20 00 00    	imul   $0x200c,%eax,%eax
  401407:	89 44 24 dc          	mov    %eax,-0x24(%rsp)
  40140b:	8b 44 24 f0          	mov    -0x10(%rsp),%eax
  40140f:	69 c0 d9 73 00 00    	imul   $0x73d9,%eax,%eax
  401415:	89 44 24 f0          	mov    %eax,-0x10(%rsp)
  401419:	8b 44 24 e4          	mov    -0x1c(%rsp),%eax
  40141d:	69 c0 1a 8b 00 00    	imul   $0x8b1a,%eax,%eax
  401423:	89 44 24 e4          	mov    %eax,-0x1c(%rsp)
  401427:	8b 44 24 dc          	mov    -0x24(%rsp),%eax
  40142b:	69 c0 31 b8 00 00    	imul   $0xb831,%eax,%eax
  401431:	89 44 24 dc          	mov    %eax,-0x24(%rsp)
  401435:	8b 44 24 e4          	mov    -0x1c(%rsp),%eax
  401439:	69 c0 fc a8 00 00    	imul   $0xa8fc,%eax,%eax
  40143f:	89 44 24 e4          	mov    %eax,-0x1c(%rsp)
  401443:	8b 44 24 f4          	mov    -0xc(%rsp),%eax
  401447:	69 c0 67 1d 00 00    	imul   $0x1d67,%eax,%eax
  40144d:	89 44 24 f4          	mov    %eax,-0xc(%rsp)
  401451:	8b 44 24 dc          	mov    -0x24(%rsp),%eax
  401455:	69 c0 f9 4f 00 00    	imul   $0x4ff9,%eax,%eax
  40145b:	89 44 24 dc          	mov    %eax,-0x24(%rsp)
  40145f:	8b 44 24 e0          	mov    -0x20(%rsp),%eax
  401463:	69 c0 7c ae 00 00    	imul   $0xae7c,%eax,%eax
  401469:	89 44 24 e0          	mov    %eax,-0x20(%rsp)
  40146d:	8b 44 24 ec          	mov    -0x14(%rsp),%eax
  401471:	69 c0 6b 0f 00 00    	imul   $0xf6b,%eax,%eax
  401477:	89 44 24 ec          	mov    %eax,-0x14(%rsp)
  40147b:	8b 44 24 e0          	mov    -0x20(%rsp),%eax
  40147f:	69 c0 dd 98 00 00    	imul   $0x98dd,%eax,%eax
  401485:	89 44 24 e0          	mov    %eax,-0x20(%rsp)
  401489:	8b 44 24 d0          	mov    -0x30(%rsp),%eax
  40148d:	69 c0 13 b5 00 00    	imul   $0xb513,%eax,%eax
  401493:	89 44 24 d0          	mov    %eax,-0x30(%rsp)
  401497:	8b 44 24 f0          	mov    -0x10(%rsp),%eax
  40149b:	69 c0 0a e9 00 00    	imul   $0xe90a,%eax,%eax
  4014a1:	89 44 24 f0          	mov    %eax,-0x10(%rsp)
  4014a5:	8b 44 24 d8          	mov    -0x28(%rsp),%eax
  4014a9:	69 c0 aa 6b 00 00    	imul   $0x6baa,%eax,%eax
  4014af:	89 44 24 d8          	mov    %eax,-0x28(%rsp)
  4014b3:	8b 44 24 e8          	mov    -0x18(%rsp),%eax
  4014b7:	69 c0 ef 49 00 00    	imul   $0x49ef,%eax,%eax
  4014bd:	89 44 24 e8          	mov    %eax,-0x18(%rsp)
  4014c1:	8b 44 24 ec          	mov    -0x14(%rsp),%eax
  4014c5:	69 c0 10 be 00 00    	imul   $0xbe10,%eax,%eax
  4014cb:	89 44 24 ec          	mov    %eax,-0x14(%rsp)
  4014cf:	8b 44 24 e0          	mov    -0x20(%rsp),%eax
  4014d3:	69 c0 ba b0 00 00    	imul   $0xb0ba,%eax,%eax
  4014d9:	89 44 24 e0          	mov    %eax,-0x20(%rsp)
  4014dd:	8b 44 24 ec          	mov    -0x14(%rsp),%eax
  4014e1:	69 c0 81 76 00 00    	imul   $0x7681,%eax,%eax
  4014e7:	89 44 24 ec          	mov    %eax,-0x14(%rsp)
  4014eb:	8b 44 24 ec          	mov    -0x14(%rsp),%eax
  4014ef:	69 c0 ab 5b 00 00    	imul   $0x5bab,%eax,%eax
  4014f5:	89 44 24 ec          	mov    %eax,-0x14(%rsp)
  4014f9:	8b 44 24 e0          	mov    -0x20(%rsp),%eax
  4014fd:	69 c0 86 62 00 00    	imul   $0x6286,%eax,%eax
  401503:	89 44 24 e0          	mov    %eax,-0x20(%rsp)
  401507:	8b 44 24 e0          	mov    -0x20(%rsp),%eax
  40150b:	69 c0 56 93 00 00    	imul   $0x9356,%eax,%eax
  401511:	89 44 24 e0          	mov    %eax,-0x20(%rsp)
  401515:	8b 44 24 f0          	mov    -0x10(%rsp),%eax
  401519:	69 c0 c8 4f 00 00    	imul   $0x4fc8,%eax,%eax
  40151f:	89 44 24 f0          	mov    %eax,-0x10(%rsp)
  401523:	8b 44 24 e4          	mov    -0x1c(%rsp),%eax
  401527:	69 c0 9b d5 00 00    	imul   $0xd59b,%eax,%eax
  40152d:	89 44 24 e4          	mov    %eax,-0x1c(%rsp)
  401531:	8b 44 24 ec          	mov    -0x14(%rsp),%eax
  401535:	69 c0 5d f9 00 00    	imul   $0xf95d,%eax,%eax
  40153b:	89 44 24 ec          	mov    %eax,-0x14(%rsp)
  40153f:	8b 44 24 e4          	mov    -0x1c(%rsp),%eax
  401543:	69 c0 b9 cb 00 00    	imul   $0xcbb9,%eax,%eax
  401549:	89 44 24 e4          	mov    %eax,-0x1c(%rsp)
  40154d:	8b 44 24 d4          	mov    -0x2c(%rsp),%eax
  401551:	69 c0 69 46 00 00    	imul   $0x4669,%eax,%eax
  401557:	89 44 24 d4          	mov    %eax,-0x2c(%rsp)
  40155b:	8b 44 24 e0          	mov    -0x20(%rsp),%eax
  40155f:	69 c0 09 45 00 00    	imul   $0x4509,%eax,%eax
  401565:	89 44 24 e0          	mov    %eax,-0x20(%rsp)
  401569:	8b 44 24 f4          	mov    -0xc(%rsp),%eax
  40156d:	69 c0 cf 58 00 00    	imul   $0x58cf,%eax,%eax
  401573:	89 44 24 f4          	mov    %eax,-0xc(%rsp)
  401577:	8b 44 24 f4          	mov    -0xc(%rsp),%eax
  40157b:	69 c0 d4 d2 00 00    	imul   $0xd2d4,%eax,%eax
  401581:	89 44 24 f4          	mov    %eax,-0xc(%rsp)
  401585:	8b 44 24 e8          	mov    -0x18(%rsp),%eax
  401589:	69 c0 83 c0 00 00    	imul   $0xc083,%eax,%eax
  40158f:	89 44 24 e8          	mov    %eax,-0x18(%rsp)
  401593:	8b 44 24 dc          	mov    -0x24(%rsp),%eax
  401597:	69 c0 e6 6a 00 00    	imul   $0x6ae6,%eax,%eax
  40159d:	89 44 24 dc          	mov    %eax,-0x24(%rsp)
  4015a1:	8b 44 24 f0          	mov    -0x10(%rsp),%eax
  4015a5:	69 c0 f5 e2 00 00    	imul   $0xe2f5,%eax,%eax
  4015ab:	89 44 24 f0          	mov    %eax,-0x10(%rsp)
  4015af:	8b 44 24 f0          	mov    -0x10(%rsp),%eax
  4015b3:	69 c0 b0 5c 00 00    	imul   $0x5cb0,%eax,%eax
  4015b9:	89 44 24 f0          	mov    %eax,-0x10(%rsp)
  4015bd:	8b 44 24 dc          	mov    -0x24(%rsp),%eax
  4015c1:	69 c0 33 40 00 00    	imul   $0x4033,%eax,%eax
  4015c7:	89 44 24 dc          	mov    %eax,-0x24(%rsp)
  4015cb:	8b 44 24 d4          	mov    -0x2c(%rsp),%eax
  4015cf:	69 c0 12 5b 00 00    	imul   $0x5b12,%eax,%eax
  4015d5:	89 44 24 d4          	mov    %eax,-0x2c(%rsp)
  4015d9:	8b 44 24 f0          	mov    -0x10(%rsp),%eax
  4015dd:	69 c0 37 cc 00 00    	imul   $0xcc37,%eax,%eax
  4015e3:	89 44 24 f0          	mov    %eax,-0x10(%rsp)
  4015e7:	8b 44 24 f4          	mov    -0xc(%rsp),%eax
  4015eb:	69 c0 3b ae 00 00    	imul   $0xae3b,%eax,%eax
  4015f1:	89 44 24 f4          	mov    %eax,-0xc(%rsp)
  4015f5:	8b 44 24 d0          	mov    -0x30(%rsp),%eax
  4015f9:	69 c0 26 9f 00 00    	imul   $0x9f26,%eax,%eax
  4015ff:	89 44 24 d0          	mov    %eax,-0x30(%rsp)
  401603:	8b 44 24 d8          	mov    -0x28(%rsp),%eax
  401607:	69 c0 c1 bb 00 00    	imul   $0xbbc1,%eax,%eax
  40160d:	89 44 24 d8          	mov    %eax,-0x28(%rsp)
  401611:	8b 44 24 e0          	mov    -0x20(%rsp),%eax
  401615:	69 c0 ed 07 00 00    	imul   $0x7ed,%eax,%eax
  40161b:	89 44 24 e0          	mov    %eax,-0x20(%rsp)
  40161f:	8b 44 24 e8          	mov    -0x18(%rsp),%eax
  401623:	69 c0 4d a1 00 00    	imul   $0xa14d,%eax,%eax
  401629:	89 44 24 e8          	mov    %eax,-0x18(%rsp)
  40162d:	8b 44 24 d0          	mov    -0x30(%rsp),%eax
  401631:	69 c0 11 ec 00 00    	imul   $0xec11,%eax,%eax
  401637:	89 44 24 d0          	mov    %eax,-0x30(%rsp)
  40163b:	8b 44 24 f4          	mov    -0xc(%rsp),%eax
  40163f:	69 c0 d2 49 00 00    	imul   $0x49d2,%eax,%eax
  401645:	89 44 24 f4          	mov    %eax,-0xc(%rsp)
  401649:	8b 44 24 ec          	mov    -0x14(%rsp),%eax
  40164d:	69 c0 69 14 00 00    	imul   $0x1469,%eax,%eax
  401653:	89 44 24 ec          	mov    %eax,-0x14(%rsp)
  401657:	8b 44 24 e0          	mov    -0x20(%rsp),%eax
  40165b:	69 c0 5a 09 00 00    	imul   $0x95a,%eax,%eax
  401661:	89 44 24 e0          	mov    %eax,-0x20(%rsp)
  401665:	8b 44 24 e8          	mov    -0x18(%rsp),%eax
  401669:	69 c0 6b 39 00 00    	imul   $0x396b,%eax,%eax
  40166f:	89 44 24 e8          	mov    %eax,-0x18(%rsp)
  401673:	8b 44 24 f0          	mov    -0x10(%rsp),%eax
  401677:	69 c0 80 53 00 00    	imul   $0x5380,%eax,%eax
  40167d:	89 44 24 f0          	mov    %eax,-0x10(%rsp)
  401681:	8b 44 24 d0          	mov    -0x30(%rsp),%eax
  401685:	69 c0 e0 8f 00 00    	imul   $0x8fe0,%eax,%eax
  40168b:	89 44 24 d0          	mov    %eax,-0x30(%rsp)
  40168f:	8b 44 24 d4          	mov    -0x2c(%rsp),%eax
  401693:	69 c0 d7 75 00 00    	imul   $0x75d7,%eax,%eax
  401699:	89 44 24 d4          	mov    %eax,-0x2c(%rsp)
  40169d:	8b 44 24 ec          	mov    -0x14(%rsp),%eax
  4016a1:	69 c0 8b 68 00 00    	imul   $0x688b,%eax,%eax
  4016a7:	89 44 24 ec          	mov    %eax,-0x14(%rsp)
  4016ab:	8b 44 24 d8          	mov    -0x28(%rsp),%eax
  4016af:	69 c0 cc 72 00 00    	imul   $0x72cc,%eax,%eax
  4016b5:	89 44 24 d8          	mov    %eax,-0x28(%rsp)
  4016b9:	ba 00 00 00 00       	mov    $0x0,%edx
  4016be:	b8 00 00 00 00       	mov    $0x0,%eax
  4016c3:	eb 0b                	jmp    4016d0 <scramble+0x45c>
  4016c5:	89 d1                	mov    %edx,%ecx
  4016c7:	8b 4c 8c d0          	mov    -0x30(%rsp,%rcx,4),%ecx
  4016cb:	01 c8                	add    %ecx,%eax
  4016cd:	83 c2 01             	add    $0x1,%edx
  4016d0:	83 fa 09             	cmp    $0x9,%edx
  4016d3:	76 f0                	jbe    4016c5 <scramble+0x451>
  4016d5:	f3 c3                	repz retq 

00000000004016d7 <getbuf>:
  4016d7:	48 83 ec 28          	sub    $0x28,%rsp
  4016db:	48 89 e7             	mov    %rsp,%rdi
  4016de:	e8 66 03 00 00       	callq  401a49 <Gets>
  4016e3:	b8 01 00 00 00       	mov    $0x1,%eax
  4016e8:	48 83 c4 28          	add    $0x28,%rsp
  4016ec:	c3                   	retq   

00000000004016ed <touch1>:
  4016ed:	48 83 ec 08          	sub    $0x8,%rsp
  4016f1:	c7 05 01 3e 20 00 01 	movl   $0x1,0x203e01(%rip)        # 6054fc <vlevel>
  4016f8:	00 00 00 
  4016fb:	48 8d 3d d9 18 00 00 	lea    0x18d9(%rip),%rdi        # 402fdb <_IO_stdin_used+0x2cb>
  401702:	e8 29 f5 ff ff       	callq  400c30 <puts@plt>
  401707:	bf 01 00 00 00       	mov    $0x1,%edi
  40170c:	e8 4f 05 00 00       	callq  401c60 <validate>
  401711:	bf 00 00 00 00       	mov    $0x0,%edi
  401716:	e8 95 f6 ff ff       	callq  400db0 <exit@plt>

000000000040171b <touch2>:
  40171b:	48 83 ec 08          	sub    $0x8,%rsp
  40171f:	89 fe                	mov    %edi,%esi
  401721:	c7 05 d1 3d 20 00 02 	movl   $0x2,0x203dd1(%rip)        # 6054fc <vlevel>
  401728:	00 00 00 
  40172b:	39 3d d3 3d 20 00    	cmp    %edi,0x203dd3(%rip)        # 605504 <cookie>
  401731:	74 25                	je     401758 <touch2+0x3d>
  401733:	48 8d 3d ee 18 00 00 	lea    0x18ee(%rip),%rdi        # 403028 <_IO_stdin_used+0x318>
  40173a:	b8 00 00 00 00       	mov    $0x0,%eax
  40173f:	e8 1c f5 ff ff       	callq  400c60 <printf@plt>
  401744:	bf 02 00 00 00       	mov    $0x2,%edi
  401749:	e8 d0 05 00 00       	callq  401d1e <fail>
  40174e:	bf 00 00 00 00       	mov    $0x0,%edi
  401753:	e8 58 f6 ff ff       	callq  400db0 <exit@plt>
  401758:	48 8d 3d a1 18 00 00 	lea    0x18a1(%rip),%rdi        # 403000 <_IO_stdin_used+0x2f0>
  40175f:	b8 00 00 00 00       	mov    $0x0,%eax
  401764:	e8 f7 f4 ff ff       	callq  400c60 <printf@plt>
  401769:	bf 02 00 00 00       	mov    $0x2,%edi
  40176e:	e8 ed 04 00 00       	callq  401c60 <validate>
  401773:	eb d9                	jmp    40174e <touch2+0x33>

0000000000401775 <hexmatch>:
  401775:	41 54                	push   %r12
  401777:	55                   	push   %rbp
  401778:	53                   	push   %rbx
  401779:	48 83 ec 70          	sub    $0x70,%rsp
  40177d:	89 fd                	mov    %edi,%ebp
  40177f:	48 89 f3             	mov    %rsi,%rbx
  401782:	e8 89 f5 ff ff       	callq  400d10 <random@plt>
  401787:	48 89 c1             	mov    %rax,%rcx
  40178a:	48 ba 0b d7 a3 70 3d 	movabs $0xa3d70a3d70a3d70b,%rdx
  401791:	0a d7 a3 
  401794:	48 f7 ea             	imul   %rdx
  401797:	48 01 ca             	add    %rcx,%rdx
  40179a:	48 c1 fa 06          	sar    $0x6,%rdx
  40179e:	48 89 c8             	mov    %rcx,%rax
  4017a1:	48 c1 f8 3f          	sar    $0x3f,%rax
  4017a5:	48 29 c2             	sub    %rax,%rdx
  4017a8:	48 8d 04 92          	lea    (%rdx,%rdx,4),%rax
  4017ac:	48 8d 14 80          	lea    (%rax,%rax,4),%rdx
  4017b0:	48 8d 04 95 00 00 00 	lea    0x0(,%rdx,4),%rax
  4017b7:	00 
  4017b8:	48 29 c1             	sub    %rax,%rcx
  4017bb:	4c 8d 24 0c          	lea    (%rsp,%rcx,1),%r12
  4017bf:	89 ea                	mov    %ebp,%edx
  4017c1:	48 8d 35 30 18 00 00 	lea    0x1830(%rip),%rsi        # 402ff8 <_IO_stdin_used+0x2e8>
  4017c8:	4c 89 e7             	mov    %r12,%rdi
  4017cb:	b8 00 00 00 00       	mov    $0x0,%eax
  4017d0:	e8 cb f5 ff ff       	callq  400da0 <sprintf@plt>
  4017d5:	ba 09 00 00 00       	mov    $0x9,%edx
  4017da:	4c 89 e6             	mov    %r12,%rsi
  4017dd:	48 89 df             	mov    %rbx,%rdi
  4017e0:	e8 2b f4 ff ff       	callq  400c10 <strncmp@plt>
  4017e5:	85 c0                	test   %eax,%eax
  4017e7:	0f 94 c0             	sete   %al
  4017ea:	0f b6 c0             	movzbl %al,%eax
  4017ed:	48 83 c4 70          	add    $0x70,%rsp
  4017f1:	5b                   	pop    %rbx
  4017f2:	5d                   	pop    %rbp
  4017f3:	41 5c                	pop    %r12
  4017f5:	c3                   	retq   

00000000004017f6 <touch3>:
  4017f6:	53                   	push   %rbx
  4017f7:	48 89 fb             	mov    %rdi,%rbx
  4017fa:	c7 05 f8 3c 20 00 03 	movl   $0x3,0x203cf8(%rip)        # 6054fc <vlevel>
  401801:	00 00 00 
  401804:	48 89 fe             	mov    %rdi,%rsi
  401807:	8b 3d f7 3c 20 00    	mov    0x203cf7(%rip),%edi        # 605504 <cookie>
  40180d:	e8 63 ff ff ff       	callq  401775 <hexmatch>
  401812:	85 c0                	test   %eax,%eax
  401814:	74 28                	je     40183e <touch3+0x48>
  401816:	48 89 de             	mov    %rbx,%rsi
  401819:	48 8d 3d 30 18 00 00 	lea    0x1830(%rip),%rdi        # 403050 <_IO_stdin_used+0x340>
  401820:	b8 00 00 00 00       	mov    $0x0,%eax
  401825:	e8 36 f4 ff ff       	callq  400c60 <printf@plt>
  40182a:	bf 03 00 00 00       	mov    $0x3,%edi
  40182f:	e8 2c 04 00 00       	callq  401c60 <validate>
  401834:	bf 00 00 00 00       	mov    $0x0,%edi
  401839:	e8 72 f5 ff ff       	callq  400db0 <exit@plt>
  40183e:	48 89 de             	mov    %rbx,%rsi
  401841:	48 8d 3d 30 18 00 00 	lea    0x1830(%rip),%rdi        # 403078 <_IO_stdin_used+0x368>
  401848:	b8 00 00 00 00       	mov    $0x0,%eax
  40184d:	e8 0e f4 ff ff       	callq  400c60 <printf@plt>
  401852:	bf 03 00 00 00       	mov    $0x3,%edi
  401857:	e8 c2 04 00 00       	callq  401d1e <fail>
  40185c:	eb d6                	jmp    401834 <touch3+0x3e>

000000000040185e <test>:
  40185e:	48 83 ec 08          	sub    $0x8,%rsp
  401862:	b8 00 00 00 00       	mov    $0x0,%eax
  401867:	e8 6b fe ff ff       	callq  4016d7 <getbuf>
  40186c:	89 c6                	mov    %eax,%esi
  40186e:	48 8d 3d 2b 18 00 00 	lea    0x182b(%rip),%rdi        # 4030a0 <_IO_stdin_used+0x390>
  401875:	b8 00 00 00 00       	mov    $0x0,%eax
  40187a:	e8 e1 f3 ff ff       	callq  400c60 <printf@plt>
  40187f:	48 83 c4 08          	add    $0x8,%rsp
  401883:	c3                   	retq   

0000000000401884 <start_farm>:
  401884:	b8 01 00 00 00       	mov    $0x1,%eax
  401889:	c3                   	retq   

000000000040188a <addval_434>:
  40188a:	8d 87 48 8b c7 c3    	lea    -0x3c3874b8(%rdi),%eax
  401890:	c3                   	retq   

0000000000401891 <addval_226>:
  401891:	8d 87 58 90 90 c3    	lea    -0x3c6f6fa8(%rdi),%eax
  401897:	c3                   	retq   

0000000000401898 <getval_180>:
  401898:	b8 48 89 c7 90       	mov    $0x90c78948,%eax
  40189d:	c3                   	retq   

000000000040189e <setval_400>:
  40189e:	c7 07 48 89 c7 92    	movl   $0x92c78948,(%rdi)
  4018a4:	c3                   	retq   

00000000004018a5 <addval_174>:
  4018a5:	8d 87 d8 c3 64 ff    	lea    -0x9b3c28(%rdi),%eax
  4018ab:	c3                   	retq   

00000000004018ac <getval_446>:
  4018ac:	b8 78 90 90 90       	mov    $0x90909078,%eax
  4018b1:	c3                   	retq   

00000000004018b2 <setval_131>:
  4018b2:	c7 07 e3 af 58 90    	movl   $0x9058afe3,(%rdi)
  4018b8:	c3                   	retq   

00000000004018b9 <getval_317>:
  4018b9:	b8 48 89 c7 90       	mov    $0x90c78948,%eax
  4018be:	c3                   	retq   

00000000004018bf <mid_farm>:
  4018bf:	b8 01 00 00 00       	mov    $0x1,%eax
  4018c4:	c3                   	retq   

00000000004018c5 <add_xy>:
  4018c5:	48 8d 04 37          	lea    (%rdi,%rsi,1),%rax
  4018c9:	c3                   	retq   

00000000004018ca <getval_497>:
  4018ca:	b8 48 81 e0 c3       	mov    $0xc3e08148,%eax
  4018cf:	c3                   	retq   

00000000004018d0 <addval_473>:
  4018d0:	8d 87 99 d1 20 c9    	lea    -0x36df2e67(%rdi),%eax
  4018d6:	c3                   	retq   

00000000004018d7 <getval_496>:
  4018d7:	b8 48 89 e0 c3       	mov    $0xc3e08948,%eax
  4018dc:	c3                   	retq   

00000000004018dd <addval_223>:
  4018dd:	8d 87 89 c2 90 c3    	lea    -0x3c6f3d77(%rdi),%eax
  4018e3:	c3                   	retq   

00000000004018e4 <setval_185>:
  4018e4:	c7 07 c9 c2 08 c0    	movl   $0xc008c2c9,(%rdi)
  4018ea:	c3                   	retq   

00000000004018eb <getval_341>:
  4018eb:	b8 48 89 e0 92       	mov    $0x92e08948,%eax
  4018f0:	c3                   	retq   

00000000004018f1 <setval_440>:
  4018f1:	c7 07 89 ce 84 c0    	movl   $0xc084ce89,(%rdi)
  4018f7:	c3                   	retq   

00000000004018f8 <setval_311>:
  4018f8:	c7 07 81 d1 08 d2    	movl   $0xd208d181,(%rdi)
  4018fe:	c3                   	retq   

00000000004018ff <setval_305>:
  4018ff:	c7 07 89 d1 84 c0    	movl   $0xc084d189,(%rdi)
  401905:	c3                   	retq   

0000000000401906 <setval_364>:
  401906:	c7 07 b9 48 89 e0    	movl   $0xe08948b9,(%rdi)
  40190c:	c3                   	retq   

000000000040190d <addval_182>:
  40190d:	8d 87 89 ce 94 c3    	lea    -0x3c6b3177(%rdi),%eax
  401913:	c3                   	retq   

0000000000401914 <addval_145>:
  401914:	8d 87 89 ce 90 c7    	lea    -0x386f3177(%rdi),%eax
  40191a:	c3                   	retq   

000000000040191b <getval_130>:
  40191b:	b8 c9 c2 c3 67       	mov    $0x67c3c2c9,%eax
  401920:	c3                   	retq   

0000000000401921 <setval_439>:
  401921:	c7 07 08 89 e0 c3    	movl   $0xc3e08908,(%rdi)
  401927:	c3                   	retq   

0000000000401928 <getval_286>:
  401928:	b8 a9 c2 84 db       	mov    $0xdb84c2a9,%eax
  40192d:	c3                   	retq   

000000000040192e <addval_227>:
  40192e:	8d 87 89 d1 00 db    	lea    -0x24ff2e77(%rdi),%eax
  401934:	c3                   	retq   

0000000000401935 <getval_443>:
  401935:	b8 89 d1 c4 db       	mov    $0xdbc4d189,%eax
  40193a:	c3                   	retq   

000000000040193b <getval_343>:
  40193b:	b8 89 c2 90 c2       	mov    $0xc290c289,%eax
  401940:	c3                   	retq   

0000000000401941 <getval_428>:
  401941:	b8 89 d1 78 c9       	mov    $0xc978d189,%eax
  401946:	c3                   	retq   

0000000000401947 <addval_113>:
  401947:	8d 87 d5 81 c2 c3    	lea    -0x3c3d7e2b(%rdi),%eax
  40194d:	c3                   	retq   

000000000040194e <getval_158>:
  40194e:	b8 48 89 e0 92       	mov    $0x92e08948,%eax
  401953:	c3                   	retq   

0000000000401954 <addval_411>:
  401954:	8d 87 c9 48 8d e0    	lea    -0x1f72b737(%rdi),%eax
  40195a:	c3                   	retq   

000000000040195b <setval_314>:
  40195b:	c7 07 89 c2 84 d2    	movl   $0xd284c289,(%rdi)
  401961:	c3                   	retq   

0000000000401962 <addval_382>:
  401962:	8d 87 89 ce 60 c9    	lea    -0x369f3177(%rdi),%eax
  401968:	c3                   	retq   

0000000000401969 <setval_257>:
  401969:	c7 07 89 ce 38 db    	movl   $0xdb38ce89,(%rdi)
  40196f:	c3                   	retq   

0000000000401970 <addval_193>:
  401970:	8d 87 89 d1 38 d2    	lea    -0x2dc72e77(%rdi),%eax
  401976:	c3                   	retq   

0000000000401977 <setval_487>:
  401977:	c7 07 81 ce 90 c3    	movl   $0xc390ce81,(%rdi)
  40197d:	c3                   	retq   

000000000040197e <setval_463>:
  40197e:	c7 07 c9 d1 08 d2    	movl   $0xd208d1c9,(%rdi)
  401984:	c3                   	retq   

0000000000401985 <setval_210>:
  401985:	c7 07 d2 89 c2 94    	movl   $0x94c289d2,(%rdi)
  40198b:	c3                   	retq   

000000000040198c <getval_105>:
  40198c:	b8 48 89 e0 c2       	mov    $0xc2e08948,%eax
  401991:	c3                   	retq   

0000000000401992 <setval_337>:
  401992:	c7 07 89 ce c4 c0    	movl   $0xc0c4ce89,(%rdi)
  401998:	c3                   	retq   

0000000000401999 <setval_132>:
  401999:	c7 07 a9 ce 84 d2    	movl   $0xd284cea9,(%rdi)
  40199f:	c3                   	retq   

00000000004019a0 <end_farm>:
  4019a0:	b8 01 00 00 00       	mov    $0x1,%eax
  4019a5:	c3                   	retq   

00000000004019a6 <save_char>:
  4019a6:	8b 05 78 47 20 00    	mov    0x204778(%rip),%eax        # 606124 <gets_cnt>
  4019ac:	3d ff 03 00 00       	cmp    $0x3ff,%eax
  4019b1:	7f 4a                	jg     4019fd <save_char+0x57>
  4019b3:	8d 14 40             	lea    (%rax,%rax,2),%edx
  4019b6:	89 f9                	mov    %edi,%ecx
  4019b8:	c0 e9 04             	shr    $0x4,%cl
  4019bb:	4c 8d 05 fe 19 00 00 	lea    0x19fe(%rip),%r8        # 4033c0 <trans_char>
  4019c2:	83 e1 0f             	and    $0xf,%ecx
  4019c5:	45 0f b6 0c 08       	movzbl (%r8,%rcx,1),%r9d
  4019ca:	48 8d 0d 4f 3b 20 00 	lea    0x203b4f(%rip),%rcx        # 605520 <gets_buf>
  4019d1:	48 63 f2             	movslq %edx,%rsi
  4019d4:	44 88 0c 31          	mov    %r9b,(%rcx,%rsi,1)
  4019d8:	8d 72 01             	lea    0x1(%rdx),%esi
  4019db:	83 e7 0f             	and    $0xf,%edi
  4019de:	41 0f b6 3c 38       	movzbl (%r8,%rdi,1),%edi
  4019e3:	48 63 f6             	movslq %esi,%rsi
  4019e6:	40 88 3c 31          	mov    %dil,(%rcx,%rsi,1)
  4019ea:	83 c2 02             	add    $0x2,%edx
  4019ed:	48 63 d2             	movslq %edx,%rdx
  4019f0:	c6 04 11 20          	movb   $0x20,(%rcx,%rdx,1)
  4019f4:	83 c0 01             	add    $0x1,%eax
  4019f7:	89 05 27 47 20 00    	mov    %eax,0x204727(%rip)        # 606124 <gets_cnt>
  4019fd:	f3 c3                	repz retq 

00000000004019ff <save_term>:
  4019ff:	8b 05 1f 47 20 00    	mov    0x20471f(%rip),%eax        # 606124 <gets_cnt>
  401a05:	8d 04 40             	lea    (%rax,%rax,2),%eax
  401a08:	48 98                	cltq   
  401a0a:	48 8d 15 0f 3b 20 00 	lea    0x203b0f(%rip),%rdx        # 605520 <gets_buf>
  401a11:	c6 04 02 00          	movb   $0x0,(%rdx,%rax,1)
  401a15:	c3                   	retq   

0000000000401a16 <check_fail>:
  401a16:	48 83 ec 08          	sub    $0x8,%rsp
  401a1a:	0f be 35 07 47 20 00 	movsbl 0x204707(%rip),%esi        # 606128 <target_prefix>
  401a21:	48 8d 0d f8 3a 20 00 	lea    0x203af8(%rip),%rcx        # 605520 <gets_buf>
  401a28:	8b 15 ca 3a 20 00    	mov    0x203aca(%rip),%edx        # 6054f8 <check_level>
  401a2e:	48 8d 3d 8e 16 00 00 	lea    0x168e(%rip),%rdi        # 4030c3 <_IO_stdin_used+0x3b3>
  401a35:	b8 00 00 00 00       	mov    $0x0,%eax
  401a3a:	e8 21 f2 ff ff       	callq  400c60 <printf@plt>
  401a3f:	bf 01 00 00 00       	mov    $0x1,%edi
  401a44:	e8 67 f3 ff ff       	callq  400db0 <exit@plt>

0000000000401a49 <Gets>:
  401a49:	41 54                	push   %r12
  401a4b:	55                   	push   %rbp
  401a4c:	53                   	push   %rbx
  401a4d:	49 89 fc             	mov    %rdi,%r12
  401a50:	c7 05 ca 46 20 00 00 	movl   $0x0,0x2046ca(%rip)        # 606124 <gets_cnt>
  401a57:	00 00 00 
  401a5a:	48 89 fb             	mov    %rdi,%rbx
  401a5d:	eb 11                	jmp    401a70 <Gets+0x27>
  401a5f:	48 8d 6b 01          	lea    0x1(%rbx),%rbp
  401a63:	88 03                	mov    %al,(%rbx)
  401a65:	0f b6 f8             	movzbl %al,%edi
  401a68:	e8 39 ff ff ff       	callq  4019a6 <save_char>
  401a6d:	48 89 eb             	mov    %rbp,%rbx
  401a70:	48 8b 3d 79 3a 20 00 	mov    0x203a79(%rip),%rdi        # 6054f0 <infile>
  401a77:	e8 a4 f2 ff ff       	callq  400d20 <_IO_getc@plt>
  401a7c:	83 f8 ff             	cmp    $0xffffffff,%eax
  401a7f:	74 05                	je     401a86 <Gets+0x3d>
  401a81:	83 f8 0a             	cmp    $0xa,%eax
  401a84:	75 d9                	jne    401a5f <Gets+0x16>
  401a86:	c6 03 00             	movb   $0x0,(%rbx)
  401a89:	b8 00 00 00 00       	mov    $0x0,%eax
  401a8e:	e8 6c ff ff ff       	callq  4019ff <save_term>
  401a93:	4c 89 e0             	mov    %r12,%rax
  401a96:	5b                   	pop    %rbx
  401a97:	5d                   	pop    %rbp
  401a98:	41 5c                	pop    %r12
  401a9a:	c3                   	retq   

0000000000401a9b <notify_server>:
  401a9b:	83 3d 66 3a 20 00 00 	cmpl   $0x0,0x203a66(%rip)        # 605508 <is_checker>
  401aa2:	0f 85 de 00 00 00    	jne    401b86 <notify_server+0xeb>
  401aa8:	55                   	push   %rbp
  401aa9:	53                   	push   %rbx
  401aaa:	48 81 ec 08 40 00 00 	sub    $0x4008,%rsp
  401ab1:	89 fb                	mov    %edi,%ebx
  401ab3:	8b 05 6b 46 20 00    	mov    0x20466b(%rip),%eax        # 606124 <gets_cnt>
  401ab9:	83 c0 64             	add    $0x64,%eax
  401abc:	3d 00 20 00 00       	cmp    $0x2000,%eax
  401ac1:	0f 8f c1 00 00 00    	jg     401b88 <notify_server+0xed>
  401ac7:	44 0f be 0d 59 46 20 	movsbl 0x204659(%rip),%r9d        # 606128 <target_prefix>
  401ace:	00 
  401acf:	83 3d b2 39 20 00 00 	cmpl   $0x0,0x2039b2(%rip)        # 605488 <notify>
  401ad6:	0f 84 c7 00 00 00    	je     401ba3 <notify_server+0x108>
  401adc:	44 8b 05 1d 3a 20 00 	mov    0x203a1d(%rip),%r8d        # 605500 <authkey>
  401ae3:	85 db                	test   %ebx,%ebx
  401ae5:	0f 84 c3 00 00 00    	je     401bae <notify_server+0x113>
  401aeb:	48 8d 2d e7 15 00 00 	lea    0x15e7(%rip),%rbp        # 4030d9 <_IO_stdin_used+0x3c9>
  401af2:	48 8d bc 24 00 20 00 	lea    0x2000(%rsp),%rdi
  401af9:	00 
  401afa:	48 8d 05 1f 3a 20 00 	lea    0x203a1f(%rip),%rax        # 605520 <gets_buf>
  401b01:	50                   	push   %rax
  401b02:	56                   	push   %rsi
  401b03:	48 89 e9             	mov    %rbp,%rcx
  401b06:	8b 15 24 36 20 00    	mov    0x203624(%rip),%edx        # 605130 <target_id>
  401b0c:	48 8d 35 d0 15 00 00 	lea    0x15d0(%rip),%rsi        # 4030e3 <_IO_stdin_used+0x3d3>
  401b13:	b8 00 00 00 00       	mov    $0x0,%eax
  401b18:	e8 83 f2 ff ff       	callq  400da0 <sprintf@plt>
  401b1d:	48 83 c4 10          	add    $0x10,%rsp
  401b21:	83 3d 60 39 20 00 00 	cmpl   $0x0,0x203960(%rip)        # 605488 <notify>
  401b28:	0f 84 b8 00 00 00    	je     401be6 <notify_server+0x14b>
  401b2e:	85 db                	test   %ebx,%ebx
  401b30:	0f 84 a2 00 00 00    	je     401bd8 <notify_server+0x13d>
  401b36:	48 8d 8c 24 00 20 00 	lea    0x2000(%rsp),%rcx
  401b3d:	00 
  401b3e:	49 89 e1             	mov    %rsp,%r9
  401b41:	41 b8 00 00 00 00    	mov    $0x0,%r8d
  401b47:	48 8b 15 fa 35 20 00 	mov    0x2035fa(%rip),%rdx        # 605148 <lab>
  401b4e:	48 8b 35 fb 35 20 00 	mov    0x2035fb(%rip),%rsi        # 605150 <course>
  401b55:	48 8b 3d e4 35 20 00 	mov    0x2035e4(%rip),%rdi        # 605140 <user_id>
  401b5c:	e8 6e 10 00 00       	callq  402bcf <driver_post>
  401b61:	85 c0                	test   %eax,%eax
  401b63:	78 55                	js     401bba <notify_server+0x11f>
  401b65:	48 8d 3d bc 16 00 00 	lea    0x16bc(%rip),%rdi        # 403228 <_IO_stdin_used+0x518>
  401b6c:	e8 bf f0 ff ff       	callq  400c30 <puts@plt>
  401b71:	48 8d 3d 93 15 00 00 	lea    0x1593(%rip),%rdi        # 40310b <_IO_stdin_used+0x3fb>
  401b78:	e8 b3 f0 ff ff       	callq  400c30 <puts@plt>
  401b7d:	48 81 c4 08 40 00 00 	add    $0x4008,%rsp
  401b84:	5b                   	pop    %rbx
  401b85:	5d                   	pop    %rbp
  401b86:	f3 c3                	repz retq 
  401b88:	48 8d 3d 69 16 00 00 	lea    0x1669(%rip),%rdi        # 4031f8 <_IO_stdin_used+0x4e8>
  401b8f:	b8 00 00 00 00       	mov    $0x0,%eax
  401b94:	e8 c7 f0 ff ff       	callq  400c60 <printf@plt>
  401b99:	bf 01 00 00 00       	mov    $0x1,%edi
  401b9e:	e8 0d f2 ff ff       	callq  400db0 <exit@plt>
  401ba3:	41 b8 ff ff ff ff    	mov    $0xffffffff,%r8d
  401ba9:	e9 35 ff ff ff       	jmpq   401ae3 <notify_server+0x48>
  401bae:	48 8d 2d 29 15 00 00 	lea    0x1529(%rip),%rbp        # 4030de <_IO_stdin_used+0x3ce>
  401bb5:	e9 38 ff ff ff       	jmpq   401af2 <notify_server+0x57>
  401bba:	48 89 e6             	mov    %rsp,%rsi
  401bbd:	48 8d 3d 3b 15 00 00 	lea    0x153b(%rip),%rdi        # 4030ff <_IO_stdin_used+0x3ef>
  401bc4:	b8 00 00 00 00       	mov    $0x0,%eax
  401bc9:	e8 92 f0 ff ff       	callq  400c60 <printf@plt>
  401bce:	bf 01 00 00 00       	mov    $0x1,%edi
  401bd3:	e8 d8 f1 ff ff       	callq  400db0 <exit@plt>
  401bd8:	48 8d 3d 36 15 00 00 	lea    0x1536(%rip),%rdi        # 403115 <_IO_stdin_used+0x405>
  401bdf:	e8 4c f0 ff ff       	callq  400c30 <puts@plt>
  401be4:	eb 97                	jmp    401b7d <notify_server+0xe2>
  401be6:	48 89 ee             	mov    %rbp,%rsi
  401be9:	48 8d 3d 70 16 00 00 	lea    0x1670(%rip),%rdi        # 403260 <_IO_stdin_used+0x550>
  401bf0:	b8 00 00 00 00       	mov    $0x0,%eax
  401bf5:	e8 66 f0 ff ff       	callq  400c60 <printf@plt>
  401bfa:	48 8b 35 3f 35 20 00 	mov    0x20353f(%rip),%rsi        # 605140 <user_id>
  401c01:	48 8d 3d 14 15 00 00 	lea    0x1514(%rip),%rdi        # 40311c <_IO_stdin_used+0x40c>
  401c08:	b8 00 00 00 00       	mov    $0x0,%eax
  401c0d:	e8 4e f0 ff ff       	callq  400c60 <printf@plt>
  401c12:	48 8b 35 37 35 20 00 	mov    0x203537(%rip),%rsi        # 605150 <course>
  401c19:	48 8d 3d 09 15 00 00 	lea    0x1509(%rip),%rdi        # 403129 <_IO_stdin_used+0x419>
  401c20:	b8 00 00 00 00       	mov    $0x0,%eax
  401c25:	e8 36 f0 ff ff       	callq  400c60 <printf@plt>
  401c2a:	48 8b 35 17 35 20 00 	mov    0x203517(%rip),%rsi        # 605148 <lab>
  401c31:	48 8d 3d fd 14 00 00 	lea    0x14fd(%rip),%rdi        # 403135 <_IO_stdin_used+0x425>
  401c38:	b8 00 00 00 00       	mov    $0x0,%eax
  401c3d:	e8 1e f0 ff ff       	callq  400c60 <printf@plt>
  401c42:	48 8d b4 24 00 20 00 	lea    0x2000(%rsp),%rsi
  401c49:	00 
  401c4a:	48 8d 3d ed 14 00 00 	lea    0x14ed(%rip),%rdi        # 40313e <_IO_stdin_used+0x42e>
  401c51:	b8 00 00 00 00       	mov    $0x0,%eax
  401c56:	e8 05 f0 ff ff       	callq  400c60 <printf@plt>
  401c5b:	e9 1d ff ff ff       	jmpq   401b7d <notify_server+0xe2>

0000000000401c60 <validate>:
  401c60:	53                   	push   %rbx
  401c61:	89 fb                	mov    %edi,%ebx
  401c63:	83 3d 9e 38 20 00 00 	cmpl   $0x0,0x20389e(%rip)        # 605508 <is_checker>
  401c6a:	74 68                	je     401cd4 <validate+0x74>
  401c6c:	39 3d 8a 38 20 00    	cmp    %edi,0x20388a(%rip)        # 6054fc <vlevel>
  401c72:	75 2d                	jne    401ca1 <validate+0x41>
  401c74:	8b 35 7e 38 20 00    	mov    0x20387e(%rip),%esi        # 6054f8 <check_level>
  401c7a:	39 f7                	cmp    %esi,%edi
  401c7c:	75 39                	jne    401cb7 <validate+0x57>
  401c7e:	0f be 35 a3 44 20 00 	movsbl 0x2044a3(%rip),%esi        # 606128 <target_prefix>
  401c85:	48 8d 0d 94 38 20 00 	lea    0x203894(%rip),%rcx        # 605520 <gets_buf>
  401c8c:	89 fa                	mov    %edi,%edx
  401c8e:	48 8d 3d d3 14 00 00 	lea    0x14d3(%rip),%rdi        # 403168 <_IO_stdin_used+0x458>
  401c95:	b8 00 00 00 00       	mov    $0x0,%eax
  401c9a:	e8 c1 ef ff ff       	callq  400c60 <printf@plt>
  401c9f:	5b                   	pop    %rbx
  401ca0:	c3                   	retq   
  401ca1:	48 8d 3d a2 14 00 00 	lea    0x14a2(%rip),%rdi        # 40314a <_IO_stdin_used+0x43a>
  401ca8:	e8 83 ef ff ff       	callq  400c30 <puts@plt>
  401cad:	b8 00 00 00 00       	mov    $0x0,%eax
  401cb2:	e8 5f fd ff ff       	callq  401a16 <check_fail>
  401cb7:	89 fa                	mov    %edi,%edx
  401cb9:	48 8d 3d c8 15 00 00 	lea    0x15c8(%rip),%rdi        # 403288 <_IO_stdin_used+0x578>
  401cc0:	b8 00 00 00 00       	mov    $0x0,%eax
  401cc5:	e8 96 ef ff ff       	callq  400c60 <printf@plt>
  401cca:	b8 00 00 00 00       	mov    $0x0,%eax
  401ccf:	e8 42 fd ff ff       	callq  401a16 <check_fail>
  401cd4:	3b 3d 22 38 20 00    	cmp    0x203822(%rip),%edi        # 6054fc <vlevel>
  401cda:	74 1a                	je     401cf6 <validate+0x96>
  401cdc:	48 8d 3d 67 14 00 00 	lea    0x1467(%rip),%rdi        # 40314a <_IO_stdin_used+0x43a>
  401ce3:	e8 48 ef ff ff       	callq  400c30 <puts@plt>
  401ce8:	89 de                	mov    %ebx,%esi
  401cea:	bf 00 00 00 00       	mov    $0x0,%edi
  401cef:	e8 a7 fd ff ff       	callq  401a9b <notify_server>
  401cf4:	eb a9                	jmp    401c9f <validate+0x3f>
  401cf6:	0f be 15 2b 44 20 00 	movsbl 0x20442b(%rip),%edx        # 606128 <target_prefix>
  401cfd:	89 fe                	mov    %edi,%esi
  401cff:	48 8d 3d aa 15 00 00 	lea    0x15aa(%rip),%rdi        # 4032b0 <_IO_stdin_used+0x5a0>
  401d06:	b8 00 00 00 00       	mov    $0x0,%eax
  401d0b:	e8 50 ef ff ff       	callq  400c60 <printf@plt>
  401d10:	89 de                	mov    %ebx,%esi
  401d12:	bf 01 00 00 00       	mov    $0x1,%edi
  401d17:	e8 7f fd ff ff       	callq  401a9b <notify_server>
  401d1c:	eb 81                	jmp    401c9f <validate+0x3f>

0000000000401d1e <fail>:
  401d1e:	48 83 ec 08          	sub    $0x8,%rsp
  401d22:	83 3d df 37 20 00 00 	cmpl   $0x0,0x2037df(%rip)        # 605508 <is_checker>
  401d29:	75 11                	jne    401d3c <fail+0x1e>
  401d2b:	89 fe                	mov    %edi,%esi
  401d2d:	bf 00 00 00 00       	mov    $0x0,%edi
  401d32:	e8 64 fd ff ff       	callq  401a9b <notify_server>
  401d37:	48 83 c4 08          	add    $0x8,%rsp
  401d3b:	c3                   	retq   
  401d3c:	b8 00 00 00 00       	mov    $0x0,%eax
  401d41:	e8 d0 fc ff ff       	callq  401a16 <check_fail>

0000000000401d46 <bushandler>:
  401d46:	48 83 ec 08          	sub    $0x8,%rsp
  401d4a:	83 3d b7 37 20 00 00 	cmpl   $0x0,0x2037b7(%rip)        # 605508 <is_checker>
  401d51:	74 16                	je     401d69 <bushandler+0x23>
  401d53:	48 8d 3d 23 14 00 00 	lea    0x1423(%rip),%rdi        # 40317d <_IO_stdin_used+0x46d>
  401d5a:	e8 d1 ee ff ff       	callq  400c30 <puts@plt>
  401d5f:	b8 00 00 00 00       	mov    $0x0,%eax
  401d64:	e8 ad fc ff ff       	callq  401a16 <check_fail>
  401d69:	48 8d 3d 78 15 00 00 	lea    0x1578(%rip),%rdi        # 4032e8 <_IO_stdin_used+0x5d8>
  401d70:	e8 bb ee ff ff       	callq  400c30 <puts@plt>
  401d75:	48 8d 3d 0b 14 00 00 	lea    0x140b(%rip),%rdi        # 403187 <_IO_stdin_used+0x477>
  401d7c:	e8 af ee ff ff       	callq  400c30 <puts@plt>
  401d81:	be 00 00 00 00       	mov    $0x0,%esi
  401d86:	bf 00 00 00 00       	mov    $0x0,%edi
  401d8b:	e8 0b fd ff ff       	callq  401a9b <notify_server>
  401d90:	bf 01 00 00 00       	mov    $0x1,%edi
  401d95:	e8 16 f0 ff ff       	callq  400db0 <exit@plt>

0000000000401d9a <seghandler>:
  401d9a:	48 83 ec 08          	sub    $0x8,%rsp
  401d9e:	83 3d 63 37 20 00 00 	cmpl   $0x0,0x203763(%rip)        # 605508 <is_checker>
  401da5:	74 16                	je     401dbd <seghandler+0x23>
  401da7:	48 8d 3d ef 13 00 00 	lea    0x13ef(%rip),%rdi        # 40319d <_IO_stdin_used+0x48d>
  401dae:	e8 7d ee ff ff       	callq  400c30 <puts@plt>
  401db3:	b8 00 00 00 00       	mov    $0x0,%eax
  401db8:	e8 59 fc ff ff       	callq  401a16 <check_fail>
  401dbd:	48 8d 3d 44 15 00 00 	lea    0x1544(%rip),%rdi        # 403308 <_IO_stdin_used+0x5f8>
  401dc4:	e8 67 ee ff ff       	callq  400c30 <puts@plt>
  401dc9:	48 8d 3d b7 13 00 00 	lea    0x13b7(%rip),%rdi        # 403187 <_IO_stdin_used+0x477>
  401dd0:	e8 5b ee ff ff       	callq  400c30 <puts@plt>
  401dd5:	be 00 00 00 00       	mov    $0x0,%esi
  401dda:	bf 00 00 00 00       	mov    $0x0,%edi
  401ddf:	e8 b7 fc ff ff       	callq  401a9b <notify_server>
  401de4:	bf 01 00 00 00       	mov    $0x1,%edi
  401de9:	e8 c2 ef ff ff       	callq  400db0 <exit@plt>

0000000000401dee <illegalhandler>:
  401dee:	48 83 ec 08          	sub    $0x8,%rsp
  401df2:	83 3d 0f 37 20 00 00 	cmpl   $0x0,0x20370f(%rip)        # 605508 <is_checker>
  401df9:	74 16                	je     401e11 <illegalhandler+0x23>
  401dfb:	48 8d 3d ae 13 00 00 	lea    0x13ae(%rip),%rdi        # 4031b0 <_IO_stdin_used+0x4a0>
  401e02:	e8 29 ee ff ff       	callq  400c30 <puts@plt>
  401e07:	b8 00 00 00 00       	mov    $0x0,%eax
  401e0c:	e8 05 fc ff ff       	callq  401a16 <check_fail>
  401e11:	48 8d 3d 18 15 00 00 	lea    0x1518(%rip),%rdi        # 403330 <_IO_stdin_used+0x620>
  401e18:	e8 13 ee ff ff       	callq  400c30 <puts@plt>
  401e1d:	48 8d 3d 63 13 00 00 	lea    0x1363(%rip),%rdi        # 403187 <_IO_stdin_used+0x477>
  401e24:	e8 07 ee ff ff       	callq  400c30 <puts@plt>
  401e29:	be 00 00 00 00       	mov    $0x0,%esi
  401e2e:	bf 00 00 00 00       	mov    $0x0,%edi
  401e33:	e8 63 fc ff ff       	callq  401a9b <notify_server>
  401e38:	bf 01 00 00 00       	mov    $0x1,%edi
  401e3d:	e8 6e ef ff ff       	callq  400db0 <exit@plt>

0000000000401e42 <sigalrmhandler>:
  401e42:	48 83 ec 08          	sub    $0x8,%rsp
  401e46:	83 3d bb 36 20 00 00 	cmpl   $0x0,0x2036bb(%rip)        # 605508 <is_checker>
  401e4d:	74 16                	je     401e65 <sigalrmhandler+0x23>
  401e4f:	48 8d 3d 6e 13 00 00 	lea    0x136e(%rip),%rdi        # 4031c4 <_IO_stdin_used+0x4b4>
  401e56:	e8 d5 ed ff ff       	callq  400c30 <puts@plt>
  401e5b:	b8 00 00 00 00       	mov    $0x0,%eax
  401e60:	e8 b1 fb ff ff       	callq  401a16 <check_fail>
  401e65:	be 05 00 00 00       	mov    $0x5,%esi
  401e6a:	48 8d 3d ef 14 00 00 	lea    0x14ef(%rip),%rdi        # 403360 <_IO_stdin_used+0x650>
  401e71:	b8 00 00 00 00       	mov    $0x0,%eax
  401e76:	e8 e5 ed ff ff       	callq  400c60 <printf@plt>
  401e7b:	be 00 00 00 00       	mov    $0x0,%esi
  401e80:	bf 00 00 00 00       	mov    $0x0,%edi
  401e85:	e8 11 fc ff ff       	callq  401a9b <notify_server>
  401e8a:	bf 01 00 00 00       	mov    $0x1,%edi
  401e8f:	e8 1c ef ff ff       	callq  400db0 <exit@plt>

0000000000401e94 <launch>:
  401e94:	55                   	push   %rbp
  401e95:	48 89 e5             	mov    %rsp,%rbp
  401e98:	48 89 fa             	mov    %rdi,%rdx
  401e9b:	48 8d 47 1e          	lea    0x1e(%rdi),%rax
  401e9f:	48 83 e0 f0          	and    $0xfffffffffffffff0,%rax
  401ea3:	48 29 c4             	sub    %rax,%rsp
  401ea6:	48 8d 7c 24 0f       	lea    0xf(%rsp),%rdi
  401eab:	48 83 e7 f0          	and    $0xfffffffffffffff0,%rdi
  401eaf:	be f4 00 00 00       	mov    $0xf4,%esi
  401eb4:	e8 b7 ed ff ff       	callq  400c70 <memset@plt>
  401eb9:	48 8b 05 e0 35 20 00 	mov    0x2035e0(%rip),%rax        # 6054a0 <stdin@@GLIBC_2.2.5>
  401ec0:	48 39 05 29 36 20 00 	cmp    %rax,0x203629(%rip)        # 6054f0 <infile>
  401ec7:	74 2b                	je     401ef4 <launch+0x60>
  401ec9:	c7 05 29 36 20 00 00 	movl   $0x0,0x203629(%rip)        # 6054fc <vlevel>
  401ed0:	00 00 00 
  401ed3:	b8 00 00 00 00       	mov    $0x0,%eax
  401ed8:	e8 81 f9 ff ff       	callq  40185e <test>
  401edd:	83 3d 24 36 20 00 00 	cmpl   $0x0,0x203624(%rip)        # 605508 <is_checker>
  401ee4:	75 21                	jne    401f07 <launch+0x73>
  401ee6:	48 8d 3d f7 12 00 00 	lea    0x12f7(%rip),%rdi        # 4031e4 <_IO_stdin_used+0x4d4>
  401eed:	e8 3e ed ff ff       	callq  400c30 <puts@plt>
  401ef2:	c9                   	leaveq 
  401ef3:	c3                   	retq   
  401ef4:	48 8d 3d d1 12 00 00 	lea    0x12d1(%rip),%rdi        # 4031cc <_IO_stdin_used+0x4bc>
  401efb:	b8 00 00 00 00       	mov    $0x0,%eax
  401f00:	e8 5b ed ff ff       	callq  400c60 <printf@plt>
  401f05:	eb c2                	jmp    401ec9 <launch+0x35>
  401f07:	48 8d 3d cb 12 00 00 	lea    0x12cb(%rip),%rdi        # 4031d9 <_IO_stdin_used+0x4c9>
  401f0e:	e8 1d ed ff ff       	callq  400c30 <puts@plt>
  401f13:	b8 00 00 00 00       	mov    $0x0,%eax
  401f18:	e8 f9 fa ff ff       	callq  401a16 <check_fail>

0000000000401f1d <stable_launch>:
  401f1d:	53                   	push   %rbx
  401f1e:	48 89 3d c3 35 20 00 	mov    %rdi,0x2035c3(%rip)        # 6054e8 <global_offset>
  401f25:	41 b9 00 00 00 00    	mov    $0x0,%r9d
  401f2b:	41 b8 00 00 00 00    	mov    $0x0,%r8d
  401f31:	b9 32 01 00 00       	mov    $0x132,%ecx
  401f36:	ba 07 00 00 00       	mov    $0x7,%edx
  401f3b:	be 00 00 10 00       	mov    $0x100000,%esi
  401f40:	bf 00 60 58 55       	mov    $0x55586000,%edi
  401f45:	e8 06 ed ff ff       	callq  400c50 <mmap@plt>
  401f4a:	48 89 c3             	mov    %rax,%rbx
  401f4d:	48 3d 00 60 58 55    	cmp    $0x55586000,%rax
  401f53:	75 43                	jne    401f98 <stable_launch+0x7b>
  401f55:	48 8d 90 f8 ff 0f 00 	lea    0xffff8(%rax),%rdx
  401f5c:	48 89 15 cd 41 20 00 	mov    %rdx,0x2041cd(%rip)        # 606130 <stack_top>
  401f63:	48 89 e0             	mov    %rsp,%rax
  401f66:	48 89 d4             	mov    %rdx,%rsp
  401f69:	48 89 c2             	mov    %rax,%rdx
  401f6c:	48 89 15 6d 35 20 00 	mov    %rdx,0x20356d(%rip)        # 6054e0 <global_save_stack>
  401f73:	48 8b 3d 6e 35 20 00 	mov    0x20356e(%rip),%rdi        # 6054e8 <global_offset>
  401f7a:	e8 15 ff ff ff       	callq  401e94 <launch>
  401f7f:	48 8b 05 5a 35 20 00 	mov    0x20355a(%rip),%rax        # 6054e0 <global_save_stack>
  401f86:	48 89 c4             	mov    %rax,%rsp
  401f89:	be 00 00 10 00       	mov    $0x100000,%esi
  401f8e:	48 89 df             	mov    %rbx,%rdi
  401f91:	e8 aa ed ff ff       	callq  400d40 <munmap@plt>
  401f96:	5b                   	pop    %rbx
  401f97:	c3                   	retq   
  401f98:	be 00 00 10 00       	mov    $0x100000,%esi
  401f9d:	48 89 c7             	mov    %rax,%rdi
  401fa0:	e8 9b ed ff ff       	callq  400d40 <munmap@plt>
  401fa5:	ba 00 60 58 55       	mov    $0x55586000,%edx
  401faa:	48 8d 35 e7 13 00 00 	lea    0x13e7(%rip),%rsi        # 403398 <_IO_stdin_used+0x688>
  401fb1:	48 8b 3d 08 35 20 00 	mov    0x203508(%rip),%rdi        # 6054c0 <stderr@@GLIBC_2.2.5>
  401fb8:	b8 00 00 00 00       	mov    $0x0,%eax
  401fbd:	e8 0e ed ff ff       	callq  400cd0 <fprintf@plt>
  401fc2:	bf 01 00 00 00       	mov    $0x1,%edi
  401fc7:	e8 e4 ed ff ff       	callq  400db0 <exit@plt>

0000000000401fcc <rio_readinitb>:
  401fcc:	89 37                	mov    %esi,(%rdi)
  401fce:	c7 47 04 00 00 00 00 	movl   $0x0,0x4(%rdi)
  401fd5:	48 8d 47 10          	lea    0x10(%rdi),%rax
  401fd9:	48 89 47 08          	mov    %rax,0x8(%rdi)
  401fdd:	c3                   	retq   

0000000000401fde <sigalrm_handler>:
  401fde:	48 83 ec 08          	sub    $0x8,%rsp
  401fe2:	ba 00 00 00 00       	mov    $0x0,%edx
  401fe7:	48 8d 35 e2 13 00 00 	lea    0x13e2(%rip),%rsi        # 4033d0 <trans_char+0x10>
  401fee:	48 8b 3d cb 34 20 00 	mov    0x2034cb(%rip),%rdi        # 6054c0 <stderr@@GLIBC_2.2.5>
  401ff5:	b8 00 00 00 00       	mov    $0x0,%eax
  401ffa:	e8 d1 ec ff ff       	callq  400cd0 <fprintf@plt>
  401fff:	bf 01 00 00 00       	mov    $0x1,%edi
  402004:	e8 a7 ed ff ff       	callq  400db0 <exit@plt>

0000000000402009 <urlencode>:
  402009:	41 54                	push   %r12
  40200b:	55                   	push   %rbp
  40200c:	53                   	push   %rbx
  40200d:	48 83 ec 10          	sub    $0x10,%rsp
  402011:	48 89 fb             	mov    %rdi,%rbx
  402014:	48 89 f5             	mov    %rsi,%rbp
  402017:	b8 00 00 00 00       	mov    $0x0,%eax
  40201c:	48 c7 c1 ff ff ff ff 	mov    $0xffffffffffffffff,%rcx
  402023:	f2 ae                	repnz scas %es:(%rdi),%al
  402025:	48 f7 d1             	not    %rcx
  402028:	8d 41 ff             	lea    -0x1(%rcx),%eax
  40202b:	eb 0e                	jmp    40203b <urlencode+0x32>
  40202d:	88 55 00             	mov    %dl,0x0(%rbp)
  402030:	48 8d 6d 01          	lea    0x1(%rbp),%rbp
  402034:	48 83 c3 01          	add    $0x1,%rbx
  402038:	44 89 e0             	mov    %r12d,%eax
  40203b:	44 8d 60 ff          	lea    -0x1(%rax),%r12d
  40203f:	85 c0                	test   %eax,%eax
  402041:	0f 84 95 00 00 00    	je     4020dc <urlencode+0xd3>
  402047:	0f b6 13             	movzbl (%rbx),%edx
  40204a:	80 fa 2a             	cmp    $0x2a,%dl
  40204d:	0f 94 c1             	sete   %cl
  402050:	80 fa 2d             	cmp    $0x2d,%dl
  402053:	0f 94 c0             	sete   %al
  402056:	08 c1                	or     %al,%cl
  402058:	75 d3                	jne    40202d <urlencode+0x24>
  40205a:	80 fa 2e             	cmp    $0x2e,%dl
  40205d:	74 ce                	je     40202d <urlencode+0x24>
  40205f:	80 fa 5f             	cmp    $0x5f,%dl
  402062:	74 c9                	je     40202d <urlencode+0x24>
  402064:	8d 42 d0             	lea    -0x30(%rdx),%eax
  402067:	3c 09                	cmp    $0x9,%al
  402069:	76 c2                	jbe    40202d <urlencode+0x24>
  40206b:	8d 42 bf             	lea    -0x41(%rdx),%eax
  40206e:	3c 19                	cmp    $0x19,%al
  402070:	76 bb                	jbe    40202d <urlencode+0x24>
  402072:	8d 42 9f             	lea    -0x61(%rdx),%eax
  402075:	3c 19                	cmp    $0x19,%al
  402077:	76 b4                	jbe    40202d <urlencode+0x24>
  402079:	80 fa 20             	cmp    $0x20,%dl
  40207c:	74 4c                	je     4020ca <urlencode+0xc1>
  40207e:	8d 42 e0             	lea    -0x20(%rdx),%eax
  402081:	3c 5f                	cmp    $0x5f,%al
  402083:	0f 96 c1             	setbe  %cl
  402086:	80 fa 09             	cmp    $0x9,%dl
  402089:	0f 94 c0             	sete   %al
  40208c:	08 c1                	or     %al,%cl
  40208e:	74 47                	je     4020d7 <urlencode+0xce>
  402090:	0f b6 d2             	movzbl %dl,%edx
  402093:	48 8d 7c 24 08       	lea    0x8(%rsp),%rdi
  402098:	48 8d 35 c9 13 00 00 	lea    0x13c9(%rip),%rsi        # 403468 <trans_char+0xa8>
  40209f:	b8 00 00 00 00       	mov    $0x0,%eax
  4020a4:	e8 f7 ec ff ff       	callq  400da0 <sprintf@plt>
  4020a9:	0f b6 44 24 08       	movzbl 0x8(%rsp),%eax
  4020ae:	88 45 00             	mov    %al,0x0(%rbp)
  4020b1:	0f b6 44 24 09       	movzbl 0x9(%rsp),%eax
  4020b6:	88 45 01             	mov    %al,0x1(%rbp)
  4020b9:	0f b6 44 24 0a       	movzbl 0xa(%rsp),%eax
  4020be:	88 45 02             	mov    %al,0x2(%rbp)
  4020c1:	48 8d 6d 03          	lea    0x3(%rbp),%rbp
  4020c5:	e9 6a ff ff ff       	jmpq   402034 <urlencode+0x2b>
  4020ca:	c6 45 00 2b          	movb   $0x2b,0x0(%rbp)
  4020ce:	48 8d 6d 01          	lea    0x1(%rbp),%rbp
  4020d2:	e9 5d ff ff ff       	jmpq   402034 <urlencode+0x2b>
  4020d7:	b8 ff ff ff ff       	mov    $0xffffffff,%eax
  4020dc:	48 83 c4 10          	add    $0x10,%rsp
  4020e0:	5b                   	pop    %rbx
  4020e1:	5d                   	pop    %rbp
  4020e2:	41 5c                	pop    %r12
  4020e4:	c3                   	retq   

00000000004020e5 <rio_writen>:
  4020e5:	41 55                	push   %r13
  4020e7:	41 54                	push   %r12
  4020e9:	55                   	push   %rbp
  4020ea:	53                   	push   %rbx
  4020eb:	48 83 ec 08          	sub    $0x8,%rsp
  4020ef:	41 89 fc             	mov    %edi,%r12d
  4020f2:	49 89 d5             	mov    %rdx,%r13
  4020f5:	48 89 f5             	mov    %rsi,%rbp
  4020f8:	48 89 d3             	mov    %rdx,%rbx
  4020fb:	eb 06                	jmp    402103 <rio_writen+0x1e>
  4020fd:	48 29 c3             	sub    %rax,%rbx
  402100:	48 01 c5             	add    %rax,%rbp
  402103:	48 85 db             	test   %rbx,%rbx
  402106:	74 24                	je     40212c <rio_writen+0x47>
  402108:	48 89 da             	mov    %rbx,%rdx
  40210b:	48 89 ee             	mov    %rbp,%rsi
  40210e:	44 89 e7             	mov    %r12d,%edi
  402111:	e8 2a eb ff ff       	callq  400c40 <write@plt>
  402116:	48 85 c0             	test   %rax,%rax
  402119:	7f e2                	jg     4020fd <rio_writen+0x18>
  40211b:	e8 d0 ea ff ff       	callq  400bf0 <__errno_location@plt>
  402120:	83 38 04             	cmpl   $0x4,(%rax)
  402123:	75 15                	jne    40213a <rio_writen+0x55>
  402125:	b8 00 00 00 00       	mov    $0x0,%eax
  40212a:	eb d1                	jmp    4020fd <rio_writen+0x18>
  40212c:	4c 89 e8             	mov    %r13,%rax
  40212f:	48 83 c4 08          	add    $0x8,%rsp
  402133:	5b                   	pop    %rbx
  402134:	5d                   	pop    %rbp
  402135:	41 5c                	pop    %r12
  402137:	41 5d                	pop    %r13
  402139:	c3                   	retq   
  40213a:	48 c7 c0 ff ff ff ff 	mov    $0xffffffffffffffff,%rax
  402141:	eb ec                	jmp    40212f <rio_writen+0x4a>

0000000000402143 <rio_read>:
  402143:	41 55                	push   %r13
  402145:	41 54                	push   %r12
  402147:	55                   	push   %rbp
  402148:	53                   	push   %rbx
  402149:	48 83 ec 08          	sub    $0x8,%rsp
  40214d:	48 89 fb             	mov    %rdi,%rbx
  402150:	49 89 f5             	mov    %rsi,%r13
  402153:	49 89 d4             	mov    %rdx,%r12
  402156:	eb 0a                	jmp    402162 <rio_read+0x1f>
  402158:	e8 93 ea ff ff       	callq  400bf0 <__errno_location@plt>
  40215d:	83 38 04             	cmpl   $0x4,(%rax)
  402160:	75 5c                	jne    4021be <rio_read+0x7b>
  402162:	8b 6b 04             	mov    0x4(%rbx),%ebp
  402165:	85 ed                	test   %ebp,%ebp
  402167:	7f 24                	jg     40218d <rio_read+0x4a>
  402169:	48 8d 6b 10          	lea    0x10(%rbx),%rbp
  40216d:	ba 00 20 00 00       	mov    $0x2000,%edx
  402172:	48 89 ee             	mov    %rbp,%rsi
  402175:	8b 3b                	mov    (%rbx),%edi
  402177:	e8 24 eb ff ff       	callq  400ca0 <read@plt>
  40217c:	89 43 04             	mov    %eax,0x4(%rbx)
  40217f:	85 c0                	test   %eax,%eax
  402181:	78 d5                	js     402158 <rio_read+0x15>
  402183:	85 c0                	test   %eax,%eax
  402185:	74 40                	je     4021c7 <rio_read+0x84>
  402187:	48 89 6b 08          	mov    %rbp,0x8(%rbx)
  40218b:	eb d5                	jmp    402162 <rio_read+0x1f>
  40218d:	89 e8                	mov    %ebp,%eax
  40218f:	49 39 c4             	cmp    %rax,%r12
  402192:	77 03                	ja     402197 <rio_read+0x54>
  402194:	44 89 e5             	mov    %r12d,%ebp
  402197:	4c 63 e5             	movslq %ebp,%r12
  40219a:	48 8b 73 08          	mov    0x8(%rbx),%rsi
  40219e:	4c 89 e2             	mov    %r12,%rdx
  4021a1:	4c 89 ef             	mov    %r13,%rdi
  4021a4:	e8 47 eb ff ff       	callq  400cf0 <memcpy@plt>
  4021a9:	4c 01 63 08          	add    %r12,0x8(%rbx)
  4021ad:	29 6b 04             	sub    %ebp,0x4(%rbx)
  4021b0:	4c 89 e0             	mov    %r12,%rax
  4021b3:	48 83 c4 08          	add    $0x8,%rsp
  4021b7:	5b                   	pop    %rbx
  4021b8:	5d                   	pop    %rbp
  4021b9:	41 5c                	pop    %r12
  4021bb:	41 5d                	pop    %r13
  4021bd:	c3                   	retq   
  4021be:	48 c7 c0 ff ff ff ff 	mov    $0xffffffffffffffff,%rax
  4021c5:	eb ec                	jmp    4021b3 <rio_read+0x70>
  4021c7:	b8 00 00 00 00       	mov    $0x0,%eax
  4021cc:	eb e5                	jmp    4021b3 <rio_read+0x70>

00000000004021ce <rio_readlineb>:
  4021ce:	41 55                	push   %r13
  4021d0:	41 54                	push   %r12
  4021d2:	55                   	push   %rbp
  4021d3:	53                   	push   %rbx
  4021d4:	48 83 ec 18          	sub    $0x18,%rsp
  4021d8:	49 89 fd             	mov    %rdi,%r13
  4021db:	49 89 d4             	mov    %rdx,%r12
  4021de:	48 89 f5             	mov    %rsi,%rbp
  4021e1:	bb 01 00 00 00       	mov    $0x1,%ebx
  4021e6:	4c 39 e3             	cmp    %r12,%rbx
  4021e9:	73 47                	jae    402232 <rio_readlineb+0x64>
  4021eb:	48 8d 74 24 0f       	lea    0xf(%rsp),%rsi
  4021f0:	ba 01 00 00 00       	mov    $0x1,%edx
  4021f5:	4c 89 ef             	mov    %r13,%rdi
  4021f8:	e8 46 ff ff ff       	callq  402143 <rio_read>
  4021fd:	83 f8 01             	cmp    $0x1,%eax
  402200:	75 1c                	jne    40221e <rio_readlineb+0x50>
  402202:	48 8d 45 01          	lea    0x1(%rbp),%rax
  402206:	0f b6 54 24 0f       	movzbl 0xf(%rsp),%edx
  40220b:	88 55 00             	mov    %dl,0x0(%rbp)
  40220e:	80 7c 24 0f 0a       	cmpb   $0xa,0xf(%rsp)
  402213:	74 1a                	je     40222f <rio_readlineb+0x61>
  402215:	48 83 c3 01          	add    $0x1,%rbx
  402219:	48 89 c5             	mov    %rax,%rbp
  40221c:	eb c8                	jmp    4021e6 <rio_readlineb+0x18>
  40221e:	85 c0                	test   %eax,%eax
  402220:	75 22                	jne    402244 <rio_readlineb+0x76>
  402222:	48 83 fb 01          	cmp    $0x1,%rbx
  402226:	75 0a                	jne    402232 <rio_readlineb+0x64>
  402228:	b8 00 00 00 00       	mov    $0x0,%eax
  40222d:	eb 0a                	jmp    402239 <rio_readlineb+0x6b>
  40222f:	48 89 c5             	mov    %rax,%rbp
  402232:	c6 45 00 00          	movb   $0x0,0x0(%rbp)
  402236:	48 89 d8             	mov    %rbx,%rax
  402239:	48 83 c4 18          	add    $0x18,%rsp
  40223d:	5b                   	pop    %rbx
  40223e:	5d                   	pop    %rbp
  40223f:	41 5c                	pop    %r12
  402241:	41 5d                	pop    %r13
  402243:	c3                   	retq   
  402244:	48 c7 c0 ff ff ff ff 	mov    $0xffffffffffffffff,%rax
  40224b:	eb ec                	jmp    402239 <rio_readlineb+0x6b>

000000000040224d <submitr>:
  40224d:	41 57                	push   %r15
  40224f:	41 56                	push   %r14
  402251:	41 55                	push   %r13
  402253:	41 54                	push   %r12
  402255:	55                   	push   %rbp
  402256:	53                   	push   %rbx
  402257:	48 81 ec 58 a0 00 00 	sub    $0xa058,%rsp
  40225e:	49 89 fd             	mov    %rdi,%r13
  402261:	89 74 24 14          	mov    %esi,0x14(%rsp)
  402265:	49 89 d7             	mov    %rdx,%r15
  402268:	48 89 4c 24 08       	mov    %rcx,0x8(%rsp)
  40226d:	4c 89 44 24 18       	mov    %r8,0x18(%rsp)
  402272:	4d 89 ce             	mov    %r9,%r14
  402275:	48 8b 9c 24 90 a0 00 	mov    0xa090(%rsp),%rbx
  40227c:	00 
  40227d:	c7 84 24 2c 20 00 00 	movl   $0x0,0x202c(%rsp)
  402284:	00 00 00 00 
  402288:	ba 00 00 00 00       	mov    $0x0,%edx
  40228d:	be 01 00 00 00       	mov    $0x1,%esi
  402292:	bf 02 00 00 00       	mov    $0x2,%edi
  402297:	e8 34 eb ff ff       	callq  400dd0 <socket@plt>
  40229c:	85 c0                	test   %eax,%eax
  40229e:	0f 88 ca 01 00 00    	js     40246e <submitr+0x221>
  4022a4:	89 c5                	mov    %eax,%ebp
  4022a6:	4c 89 ef             	mov    %r13,%rdi
  4022a9:	e8 12 ea ff ff       	callq  400cc0 <gethostbyname@plt>
  4022ae:	48 85 c0             	test   %rax,%rax
  4022b1:	0f 84 05 02 00 00    	je     4024bc <submitr+0x26f>
  4022b7:	4c 8d a4 24 40 a0 00 	lea    0xa040(%rsp),%r12
  4022be:	00 
  4022bf:	48 c7 84 24 40 a0 00 	movq   $0x0,0xa040(%rsp)
  4022c6:	00 00 00 00 00 
  4022cb:	48 c7 84 24 48 a0 00 	movq   $0x0,0xa048(%rsp)
  4022d2:	00 00 00 00 00 
  4022d7:	66 c7 84 24 40 a0 00 	movw   $0x2,0xa040(%rsp)
  4022de:	00 02 00 
  4022e1:	48 8b 48 18          	mov    0x18(%rax),%rcx
  4022e5:	48 63 50 14          	movslq 0x14(%rax),%rdx
  4022e9:	48 8d b4 24 44 a0 00 	lea    0xa044(%rsp),%rsi
  4022f0:	00 
  4022f1:	48 8b 39             	mov    (%rcx),%rdi
  4022f4:	e8 57 ea ff ff       	callq  400d50 <bcopy@plt>
  4022f9:	0f b7 44 24 14       	movzwl 0x14(%rsp),%eax
  4022fe:	66 c1 c8 08          	ror    $0x8,%ax
  402302:	66 89 84 24 42 a0 00 	mov    %ax,0xa042(%rsp)
  402309:	00 
  40230a:	ba 10 00 00 00       	mov    $0x10,%edx
  40230f:	4c 89 e6             	mov    %r12,%rsi
  402312:	89 ef                	mov    %ebp,%edi
  402314:	e8 a7 ea ff ff       	callq  400dc0 <connect@plt>
  402319:	85 c0                	test   %eax,%eax
  40231b:	0f 88 02 02 00 00    	js     402523 <submitr+0x2d6>
  402321:	48 c7 c6 ff ff ff ff 	mov    $0xffffffffffffffff,%rsi
  402328:	b8 00 00 00 00       	mov    $0x0,%eax
  40232d:	48 89 f1             	mov    %rsi,%rcx
  402330:	4c 89 f7             	mov    %r14,%rdi
  402333:	f2 ae                	repnz scas %es:(%rdi),%al
  402335:	48 f7 d1             	not    %rcx
  402338:	48 89 ca             	mov    %rcx,%rdx
  40233b:	48 89 f1             	mov    %rsi,%rcx
  40233e:	4c 89 ff             	mov    %r15,%rdi
  402341:	f2 ae                	repnz scas %es:(%rdi),%al
  402343:	48 f7 d1             	not    %rcx
  402346:	49 89 c8             	mov    %rcx,%r8
  402349:	48 89 f1             	mov    %rsi,%rcx
  40234c:	48 8b 7c 24 08       	mov    0x8(%rsp),%rdi
  402351:	f2 ae                	repnz scas %es:(%rdi),%al
  402353:	48 f7 d1             	not    %rcx
  402356:	4d 8d 44 08 fe       	lea    -0x2(%r8,%rcx,1),%r8
  40235b:	48 89 f1             	mov    %rsi,%rcx
  40235e:	48 8b 7c 24 18       	mov    0x18(%rsp),%rdi
  402363:	f2 ae                	repnz scas %es:(%rdi),%al
  402365:	48 89 c8             	mov    %rcx,%rax
  402368:	48 f7 d0             	not    %rax
  40236b:	49 8d 4c 00 ff       	lea    -0x1(%r8,%rax,1),%rcx
  402370:	48 8d 44 52 fd       	lea    -0x3(%rdx,%rdx,2),%rax
  402375:	48 8d 84 01 80 00 00 	lea    0x80(%rcx,%rax,1),%rax
  40237c:	00 
  40237d:	48 3d 00 20 00 00    	cmp    $0x2000,%rax
  402383:	0f 87 f3 01 00 00    	ja     40257c <submitr+0x32f>
  402389:	48 8d b4 24 30 40 00 	lea    0x4030(%rsp),%rsi
  402390:	00 
  402391:	b9 00 04 00 00       	mov    $0x400,%ecx
  402396:	b8 00 00 00 00       	mov    $0x0,%eax
  40239b:	48 89 f7             	mov    %rsi,%rdi
  40239e:	f3 48 ab             	rep stos %rax,%es:(%rdi)
  4023a1:	4c 89 f7             	mov    %r14,%rdi
  4023a4:	e8 60 fc ff ff       	callq  402009 <urlencode>
  4023a9:	85 c0                	test   %eax,%eax
  4023ab:	0f 88 3d 02 00 00    	js     4025ee <submitr+0x3a1>
  4023b1:	4c 8d a4 24 30 60 00 	lea    0x6030(%rsp),%r12
  4023b8:	00 
  4023b9:	4d 89 e9             	mov    %r13,%r9
  4023bc:	4c 8d 84 24 30 40 00 	lea    0x4030(%rsp),%r8
  4023c3:	00 
  4023c4:	4c 89 f9             	mov    %r15,%rcx
  4023c7:	48 8b 54 24 08       	mov    0x8(%rsp),%rdx
  4023cc:	48 8d 35 25 10 00 00 	lea    0x1025(%rip),%rsi        # 4033f8 <trans_char+0x38>
  4023d3:	4c 89 e7             	mov    %r12,%rdi
  4023d6:	b8 00 00 00 00       	mov    $0x0,%eax
  4023db:	e8 c0 e9 ff ff       	callq  400da0 <sprintf@plt>
  4023e0:	b8 00 00 00 00       	mov    $0x0,%eax
  4023e5:	48 c7 c1 ff ff ff ff 	mov    $0xffffffffffffffff,%rcx
  4023ec:	4c 89 e7             	mov    %r12,%rdi
  4023ef:	f2 ae                	repnz scas %es:(%rdi),%al
  4023f1:	48 f7 d1             	not    %rcx
  4023f4:	48 8d 51 ff          	lea    -0x1(%rcx),%rdx
  4023f8:	4c 89 e6             	mov    %r12,%rsi
  4023fb:	89 ef                	mov    %ebp,%edi
  4023fd:	e8 e3 fc ff ff       	callq  4020e5 <rio_writen>
  402402:	48 85 c0             	test   %rax,%rax
  402405:	0f 88 6d 02 00 00    	js     402678 <submitr+0x42b>
  40240b:	4c 8d a4 24 30 80 00 	lea    0x8030(%rsp),%r12
  402412:	00 
  402413:	89 ee                	mov    %ebp,%esi
  402415:	4c 89 e7             	mov    %r12,%rdi
  402418:	e8 af fb ff ff       	callq  401fcc <rio_readinitb>
  40241d:	48 8d b4 24 30 60 00 	lea    0x6030(%rsp),%rsi
  402424:	00 
  402425:	ba 00 20 00 00       	mov    $0x2000,%edx
  40242a:	4c 89 e7             	mov    %r12,%rdi
  40242d:	e8 9c fd ff ff       	callq  4021ce <rio_readlineb>
  402432:	48 85 c0             	test   %rax,%rax
  402435:	0f 8e ab 02 00 00    	jle    4026e6 <submitr+0x499>
  40243b:	48 8d 8c 24 2c 20 00 	lea    0x202c(%rsp),%rcx
  402442:	00 
  402443:	48 8d 94 24 30 20 00 	lea    0x2030(%rsp),%rdx
  40244a:	00 
  40244b:	48 8d bc 24 30 60 00 	lea    0x6030(%rsp),%rdi
  402452:	00 
  402453:	4c 8d 44 24 20       	lea    0x20(%rsp),%r8
  402458:	48 8d 35 10 10 00 00 	lea    0x1010(%rip),%rsi        # 40346f <trans_char+0xaf>
  40245f:	b8 00 00 00 00       	mov    $0x0,%eax
  402464:	e8 c7 e8 ff ff       	callq  400d30 <__isoc99_sscanf@plt>
  402469:	e9 9f 03 00 00       	jmpq   40280d <submitr+0x5c0>
  40246e:	48 b8 45 72 72 6f 72 	movabs $0x43203a726f727245,%rax
  402475:	3a 20 43 
  402478:	48 89 03             	mov    %rax,(%rbx)
  40247b:	48 b8 6c 69 65 6e 74 	movabs $0x6e7520746e65696c,%rax
  402482:	20 75 6e 
  402485:	48 89 43 08          	mov    %rax,0x8(%rbx)
  402489:	48 b8 61 62 6c 65 20 	movabs $0x206f7420656c6261,%rax
  402490:	74 6f 20 
  402493:	48 89 43 10          	mov    %rax,0x10(%rbx)
  402497:	48 b8 63 72 65 61 74 	movabs $0x7320657461657263,%rax
  40249e:	65 20 73 
  4024a1:	48 89 43 18          	mov    %rax,0x18(%rbx)
  4024a5:	c7 43 20 6f 63 6b 65 	movl   $0x656b636f,0x20(%rbx)
  4024ac:	66 c7 43 24 74 00    	movw   $0x74,0x24(%rbx)
  4024b2:	b8 ff ff ff ff       	mov    $0xffffffff,%eax
  4024b7:	e9 18 03 00 00       	jmpq   4027d4 <submitr+0x587>
  4024bc:	48 b8 45 72 72 6f 72 	movabs $0x44203a726f727245,%rax
  4024c3:	3a 20 44 
  4024c6:	48 89 03             	mov    %rax,(%rbx)
  4024c9:	48 b8 4e 53 20 69 73 	movabs $0x6e7520736920534e,%rax
  4024d0:	20 75 6e 
  4024d3:	48 89 43 08          	mov    %rax,0x8(%rbx)
  4024d7:	48 b8 61 62 6c 65 20 	movabs $0x206f7420656c6261,%rax
  4024de:	74 6f 20 
  4024e1:	48 89 43 10          	mov    %rax,0x10(%rbx)
  4024e5:	48 b8 72 65 73 6f 6c 	movabs $0x2065766c6f736572,%rax
  4024ec:	76 65 20 
  4024ef:	48 89 43 18          	mov    %rax,0x18(%rbx)
  4024f3:	48 b8 73 65 72 76 65 	movabs $0x6120726576726573,%rax
  4024fa:	72 20 61 
  4024fd:	48 89 43 20          	mov    %rax,0x20(%rbx)
  402501:	c7 43 28 64 64 72 65 	movl   $0x65726464,0x28(%rbx)
  402508:	66 c7 43 2c 73 73    	movw   $0x7373,0x2c(%rbx)
  40250e:	c6 43 2e 00          	movb   $0x0,0x2e(%rbx)
  402512:	89 ef                	mov    %ebp,%edi
  402514:	e8 77 e7 ff ff       	callq  400c90 <close@plt>
  402519:	b8 ff ff ff ff       	mov    $0xffffffff,%eax
  40251e:	e9 b1 02 00 00       	jmpq   4027d4 <submitr+0x587>
  402523:	48 b8 45 72 72 6f 72 	movabs $0x55203a726f727245,%rax
  40252a:	3a 20 55 
  40252d:	48 89 03             	mov    %rax,(%rbx)
  402530:	48 b8 6e 61 62 6c 65 	movabs $0x6f7420656c62616e,%rax
  402537:	20 74 6f 
  40253a:	48 89 43 08          	mov    %rax,0x8(%rbx)
  40253e:	48 b8 20 63 6f 6e 6e 	movabs $0x7463656e6e6f6320,%rax
  402545:	65 63 74 
  402548:	48 89 43 10          	mov    %rax,0x10(%rbx)
  40254c:	48 b8 20 74 6f 20 74 	movabs $0x20656874206f7420,%rax
  402553:	68 65 20 
  402556:	48 89 43 18          	mov    %rax,0x18(%rbx)
  40255a:	c7 43 20 73 65 72 76 	movl   $0x76726573,0x20(%rbx)
  402561:	66 c7 43 24 65 72    	movw   $0x7265,0x24(%rbx)
  402567:	c6 43 26 00          	movb   $0x0,0x26(%rbx)
  40256b:	89 ef                	mov    %ebp,%edi
  40256d:	e8 1e e7 ff ff       	callq  400c90 <close@plt>
  402572:	b8 ff ff ff ff       	mov    $0xffffffff,%eax
  402577:	e9 58 02 00 00       	jmpq   4027d4 <submitr+0x587>
  40257c:	48 b8 45 72 72 6f 72 	movabs $0x52203a726f727245,%rax
  402583:	3a 20 52 
  402586:	48 89 03             	mov    %rax,(%rbx)
  402589:	48 b8 65 73 75 6c 74 	movabs $0x747320746c757365,%rax
  402590:	20 73 74 
  402593:	48 89 43 08          	mov    %rax,0x8(%rbx)
  402597:	48 b8 72 69 6e 67 20 	movabs $0x6f6f7420676e6972,%rax
  40259e:	74 6f 6f 
  4025a1:	48 89 43 10          	mov    %rax,0x10(%rbx)
  4025a5:	48 b8 20 6c 61 72 67 	movabs $0x202e656772616c20,%rax
  4025ac:	65 2e 20 
  4025af:	48 89 43 18          	mov    %rax,0x18(%rbx)
  4025b3:	48 b8 49 6e 63 72 65 	movabs $0x6573616572636e49,%rax
  4025ba:	61 73 65 
  4025bd:	48 89 43 20          	mov    %rax,0x20(%rbx)
  4025c1:	48 b8 20 53 55 42 4d 	movabs $0x5254494d42555320,%rax
  4025c8:	49 54 52 
  4025cb:	48 89 43 28          	mov    %rax,0x28(%rbx)
  4025cf:	48 b8 5f 4d 41 58 42 	movabs $0x46554258414d5f,%rax
  4025d6:	55 46 00 
  4025d9:	48 89 43 30          	mov    %rax,0x30(%rbx)
  4025dd:	89 ef                	mov    %ebp,%edi
  4025df:	e8 ac e6 ff ff       	callq  400c90 <close@plt>
  4025e4:	b8 ff ff ff ff       	mov    $0xffffffff,%eax
  4025e9:	e9 e6 01 00 00       	jmpq   4027d4 <submitr+0x587>
  4025ee:	48 b8 45 72 72 6f 72 	movabs $0x52203a726f727245,%rax
  4025f5:	3a 20 52 
  4025f8:	48 89 03             	mov    %rax,(%rbx)
  4025fb:	48 b8 65 73 75 6c 74 	movabs $0x747320746c757365,%rax
  402602:	20 73 74 
  402605:	48 89 43 08          	mov    %rax,0x8(%rbx)
  402609:	48 b8 72 69 6e 67 20 	movabs $0x6e6f6320676e6972,%rax
  402610:	63 6f 6e 
  402613:	48 89 43 10          	mov    %rax,0x10(%rbx)
  402617:	48 b8 74 61 69 6e 73 	movabs $0x6e6120736e696174,%rax
  40261e:	20 61 6e 
  402621:	48 89 43 18          	mov    %rax,0x18(%rbx)
  402625:	48 b8 20 69 6c 6c 65 	movabs $0x6c6167656c6c6920,%rax
  40262c:	67 61 6c 
  40262f:	48 89 43 20          	mov    %rax,0x20(%rbx)
  402633:	48 b8 20 6f 72 20 75 	movabs $0x72706e7520726f20,%rax
  40263a:	6e 70 72 
  40263d:	48 89 43 28          	mov    %rax,0x28(%rbx)
  402641:	48 b8 69 6e 74 61 62 	movabs $0x20656c6261746e69,%rax
  402648:	6c 65 20 
  40264b:	48 89 43 30          	mov    %rax,0x30(%rbx)
  40264f:	48 b8 63 68 61 72 61 	movabs $0x6574636172616863,%rax
  402656:	63 74 65 
  402659:	48 89 43 38          	mov    %rax,0x38(%rbx)
  40265d:	66 c7 43 40 72 2e    	movw   $0x2e72,0x40(%rbx)
  402663:	c6 43 42 00          	movb   $0x0,0x42(%rbx)
  402667:	89 ef                	mov    %ebp,%edi
  402669:	e8 22 e6 ff ff       	callq  400c90 <close@plt>
  40266e:	b8 ff ff ff ff       	mov    $0xffffffff,%eax
  402673:	e9 5c 01 00 00       	jmpq   4027d4 <submitr+0x587>
  402678:	48 b8 45 72 72 6f 72 	movabs $0x43203a726f727245,%rax
  40267f:	3a 20 43 
  402682:	48 89 03             	mov    %rax,(%rbx)
  402685:	48 b8 6c 69 65 6e 74 	movabs $0x6e7520746e65696c,%rax
  40268c:	20 75 6e 
  40268f:	48 89 43 08          	mov    %rax,0x8(%rbx)
  402693:	48 b8 61 62 6c 65 20 	movabs $0x206f7420656c6261,%rax
  40269a:	74 6f 20 
  40269d:	48 89 43 10          	mov    %rax,0x10(%rbx)
  4026a1:	48 b8 77 72 69 74 65 	movabs $0x6f74206574697277,%rax
  4026a8:	20 74 6f 
  4026ab:	48 89 43 18          	mov    %rax,0x18(%rbx)
  4026af:	48 b8 20 74 68 65 20 	movabs $0x7365722065687420,%rax
  4026b6:	72 65 73 
  4026b9:	48 89 43 20          	mov    %rax,0x20(%rbx)
  4026bd:	48 b8 75 6c 74 20 73 	movabs $0x7672657320746c75,%rax
  4026c4:	65 72 76 
  4026c7:	48 89 43 28          	mov    %rax,0x28(%rbx)
  4026cb:	66 c7 43 30 65 72    	movw   $0x7265,0x30(%rbx)
  4026d1:	c6 43 32 00          	movb   $0x0,0x32(%rbx)
  4026d5:	89 ef                	mov    %ebp,%edi
  4026d7:	e8 b4 e5 ff ff       	callq  400c90 <close@plt>
  4026dc:	b8 ff ff ff ff       	mov    $0xffffffff,%eax
  4026e1:	e9 ee 00 00 00       	jmpq   4027d4 <submitr+0x587>
  4026e6:	48 b8 45 72 72 6f 72 	movabs $0x43203a726f727245,%rax
  4026ed:	3a 20 43 
  4026f0:	48 89 03             	mov    %rax,(%rbx)
  4026f3:	48 b8 6c 69 65 6e 74 	movabs $0x6e7520746e65696c,%rax
  4026fa:	20 75 6e 
  4026fd:	48 89 43 08          	mov    %rax,0x8(%rbx)
  402701:	48 b8 61 62 6c 65 20 	movabs $0x206f7420656c6261,%rax
  402708:	74 6f 20 
  40270b:	48 89 43 10          	mov    %rax,0x10(%rbx)
  40270f:	48 b8 72 65 61 64 20 	movabs $0x7269662064616572,%rax
  402716:	66 69 72 
  402719:	48 89 43 18          	mov    %rax,0x18(%rbx)
  40271d:	48 b8 73 74 20 68 65 	movabs $0x6564616568207473,%rax
  402724:	61 64 65 
  402727:	48 89 43 20          	mov    %rax,0x20(%rbx)
  40272b:	48 b8 72 20 66 72 6f 	movabs $0x72206d6f72662072,%rax
  402732:	6d 20 72 
  402735:	48 89 43 28          	mov    %rax,0x28(%rbx)
  402739:	48 b8 65 73 75 6c 74 	movabs $0x657320746c757365,%rax
  402740:	20 73 65 
  402743:	48 89 43 30          	mov    %rax,0x30(%rbx)
  402747:	c7 43 38 72 76 65 72 	movl   $0x72657672,0x38(%rbx)
  40274e:	c6 43 3c 00          	movb   $0x0,0x3c(%rbx)
  402752:	89 ef                	mov    %ebp,%edi
  402754:	e8 37 e5 ff ff       	callq  400c90 <close@plt>
  402759:	b8 ff ff ff ff       	mov    $0xffffffff,%eax
  40275e:	eb 74                	jmp    4027d4 <submitr+0x587>
  402760:	48 b8 45 72 72 6f 72 	movabs $0x43203a726f727245,%rax
  402767:	3a 20 43 
  40276a:	48 89 03             	mov    %rax,(%rbx)
  40276d:	48 b8 6c 69 65 6e 74 	movabs $0x6e7520746e65696c,%rax
  402774:	20 75 6e 
  402777:	48 89 43 08          	mov    %rax,0x8(%rbx)
  40277b:	48 b8 61 62 6c 65 20 	movabs $0x206f7420656c6261,%rax
  402782:	74 6f 20 
  402785:	48 89 43 10          	mov    %rax,0x10(%rbx)
  402789:	48 b8 72 65 61 64 20 	movabs $0x6165682064616572,%rax
  402790:	68 65 61 
  402793:	48 89 43 18          	mov    %rax,0x18(%rbx)
  402797:	48 b8 64 65 72 73 20 	movabs $0x6f72662073726564,%rax
  40279e:	66 72 6f 
  4027a1:	48 89 43 20          	mov    %rax,0x20(%rbx)
  4027a5:	48 b8 6d 20 74 68 65 	movabs $0x657220656874206d,%rax
  4027ac:	20 72 65 
  4027af:	48 89 43 28          	mov    %rax,0x28(%rbx)
  4027b3:	48 b8 73 75 6c 74 20 	movabs $0x72657320746c7573,%rax
  4027ba:	73 65 72 
  4027bd:	48 89 43 30          	mov    %rax,0x30(%rbx)
  4027c1:	c7 43 38 76 65 72 00 	movl   $0x726576,0x38(%rbx)
  4027c8:	89 ef                	mov    %ebp,%edi
  4027ca:	e8 c1 e4 ff ff       	callq  400c90 <close@plt>
  4027cf:	b8 ff ff ff ff       	mov    $0xffffffff,%eax
  4027d4:	48 81 c4 58 a0 00 00 	add    $0xa058,%rsp
  4027db:	5b                   	pop    %rbx
  4027dc:	5d                   	pop    %rbp
  4027dd:	41 5c                	pop    %r12
  4027df:	41 5d                	pop    %r13
  4027e1:	41 5e                	pop    %r14
  4027e3:	41 5f                	pop    %r15
  4027e5:	c3                   	retq   
  4027e6:	85 c0                	test   %eax,%eax
  4027e8:	74 51                	je     40283b <submitr+0x5ee>
  4027ea:	48 8d b4 24 30 60 00 	lea    0x6030(%rsp),%rsi
  4027f1:	00 
  4027f2:	48 8d bc 24 30 80 00 	lea    0x8030(%rsp),%rdi
  4027f9:	00 
  4027fa:	ba 00 20 00 00       	mov    $0x2000,%edx
  4027ff:	e8 ca f9 ff ff       	callq  4021ce <rio_readlineb>
  402804:	48 85 c0             	test   %rax,%rax
  402807:	0f 8e 53 ff ff ff    	jle    402760 <submitr+0x513>
  40280d:	0f b6 94 24 30 60 00 	movzbl 0x6030(%rsp),%edx
  402814:	00 
  402815:	b8 0d 00 00 00       	mov    $0xd,%eax
  40281a:	29 d0                	sub    %edx,%eax
  40281c:	75 c8                	jne    4027e6 <submitr+0x599>
  40281e:	0f b6 94 24 31 60 00 	movzbl 0x6031(%rsp),%edx
  402825:	00 
  402826:	b8 0a 00 00 00       	mov    $0xa,%eax
  40282b:	29 d0                	sub    %edx,%eax
  40282d:	75 b7                	jne    4027e6 <submitr+0x599>
  40282f:	0f b6 84 24 32 60 00 	movzbl 0x6032(%rsp),%eax
  402836:	00 
  402837:	f7 d8                	neg    %eax
  402839:	eb ab                	jmp    4027e6 <submitr+0x599>
  40283b:	48 8d b4 24 30 60 00 	lea    0x6030(%rsp),%rsi
  402842:	00 
  402843:	48 8d bc 24 30 80 00 	lea    0x8030(%rsp),%rdi
  40284a:	00 
  40284b:	ba 00 20 00 00       	mov    $0x2000,%edx
  402850:	e8 79 f9 ff ff       	callq  4021ce <rio_readlineb>
  402855:	48 85 c0             	test   %rax,%rax
  402858:	7e 67                	jle    4028c1 <submitr+0x674>
  40285a:	8b 94 24 2c 20 00 00 	mov    0x202c(%rsp),%edx
  402861:	81 fa c8 00 00 00    	cmp    $0xc8,%edx
  402867:	0f 85 d7 00 00 00    	jne    402944 <submitr+0x6f7>
  40286d:	48 8d b4 24 30 60 00 	lea    0x6030(%rsp),%rsi
  402874:	00 
  402875:	48 89 df             	mov    %rbx,%rdi
  402878:	e8 a3 e3 ff ff       	callq  400c20 <strcpy@plt>
  40287d:	89 ef                	mov    %ebp,%edi
  40287f:	e8 0c e4 ff ff       	callq  400c90 <close@plt>
  402884:	0f b6 03             	movzbl (%rbx),%eax
  402887:	ba 4f 00 00 00       	mov    $0x4f,%edx
  40288c:	29 c2                	sub    %eax,%edx
  40288e:	0f 85 da 00 00 00    	jne    40296e <submitr+0x721>
  402894:	0f b6 4b 01          	movzbl 0x1(%rbx),%ecx
  402898:	b8 4b 00 00 00       	mov    $0x4b,%eax
  40289d:	29 c8                	sub    %ecx,%eax
  40289f:	0f 85 cb 00 00 00    	jne    402970 <submitr+0x723>
  4028a5:	0f b6 4b 02          	movzbl 0x2(%rbx),%ecx
  4028a9:	b8 0a 00 00 00       	mov    $0xa,%eax
  4028ae:	29 c8                	sub    %ecx,%eax
  4028b0:	0f 85 ba 00 00 00    	jne    402970 <submitr+0x723>
  4028b6:	0f b6 43 03          	movzbl 0x3(%rbx),%eax
  4028ba:	f7 d8                	neg    %eax
  4028bc:	e9 af 00 00 00       	jmpq   402970 <submitr+0x723>
  4028c1:	48 b8 45 72 72 6f 72 	movabs $0x43203a726f727245,%rax
  4028c8:	3a 20 43 
  4028cb:	48 89 03             	mov    %rax,(%rbx)
  4028ce:	48 b8 6c 69 65 6e 74 	movabs $0x6e7520746e65696c,%rax
  4028d5:	20 75 6e 
  4028d8:	48 89 43 08          	mov    %rax,0x8(%rbx)
  4028dc:	48 b8 61 62 6c 65 20 	movabs $0x206f7420656c6261,%rax
  4028e3:	74 6f 20 
  4028e6:	48 89 43 10          	mov    %rax,0x10(%rbx)
  4028ea:	48 b8 72 65 61 64 20 	movabs $0x6174732064616572,%rax
  4028f1:	73 74 61 
  4028f4:	48 89 43 18          	mov    %rax,0x18(%rbx)
  4028f8:	48 b8 74 75 73 20 6d 	movabs $0x7373656d20737574,%rax
  4028ff:	65 73 73 
  402902:	48 89 43 20          	mov    %rax,0x20(%rbx)
  402906:	48 b8 61 67 65 20 66 	movabs $0x6d6f726620656761,%rax
  40290d:	72 6f 6d 
  402910:	48 89 43 28          	mov    %rax,0x28(%rbx)
  402914:	48 b8 20 72 65 73 75 	movabs $0x20746c7573657220,%rax
  40291b:	6c 74 20 
  40291e:	48 89 43 30          	mov    %rax,0x30(%rbx)
  402922:	c7 43 38 73 65 72 76 	movl   $0x76726573,0x38(%rbx)
  402929:	66 c7 43 3c 65 72    	movw   $0x7265,0x3c(%rbx)
  40292f:	c6 43 3e 00          	movb   $0x0,0x3e(%rbx)
  402933:	89 ef                	mov    %ebp,%edi
  402935:	e8 56 e3 ff ff       	callq  400c90 <close@plt>
  40293a:	b8 ff ff ff ff       	mov    $0xffffffff,%eax
  40293f:	e9 90 fe ff ff       	jmpq   4027d4 <submitr+0x587>
  402944:	48 8d 4c 24 20       	lea    0x20(%rsp),%rcx
  402949:	48 8d 35 e8 0a 00 00 	lea    0xae8(%rip),%rsi        # 403438 <trans_char+0x78>
  402950:	48 89 df             	mov    %rbx,%rdi
  402953:	b8 00 00 00 00       	mov    $0x0,%eax
  402958:	e8 43 e4 ff ff       	callq  400da0 <sprintf@plt>
  40295d:	89 ef                	mov    %ebp,%edi
  40295f:	e8 2c e3 ff ff       	callq  400c90 <close@plt>
  402964:	b8 ff ff ff ff       	mov    $0xffffffff,%eax
  402969:	e9 66 fe ff ff       	jmpq   4027d4 <submitr+0x587>
  40296e:	89 d0                	mov    %edx,%eax
  402970:	f7 d8                	neg    %eax
  402972:	0f 84 5c fe ff ff    	je     4027d4 <submitr+0x587>
  402978:	b9 05 00 00 00       	mov    $0x5,%ecx
  40297d:	48 8d 3d fc 0a 00 00 	lea    0xafc(%rip),%rdi        # 403480 <trans_char+0xc0>
  402984:	48 89 de             	mov    %rbx,%rsi
  402987:	f3 a6                	repz cmpsb %es:(%rdi),%ds:(%rsi)
  402989:	0f 97 c0             	seta   %al
  40298c:	0f 92 c1             	setb   %cl
  40298f:	29 c8                	sub    %ecx,%eax
  402991:	0f be c0             	movsbl %al,%eax
  402994:	85 c0                	test   %eax,%eax
  402996:	0f 84 38 fe ff ff    	je     4027d4 <submitr+0x587>
  40299c:	85 d2                	test   %edx,%edx
  40299e:	75 13                	jne    4029b3 <submitr+0x766>
  4029a0:	0f b6 43 01          	movzbl 0x1(%rbx),%eax
  4029a4:	ba 4b 00 00 00       	mov    $0x4b,%edx
  4029a9:	29 c2                	sub    %eax,%edx
  4029ab:	75 06                	jne    4029b3 <submitr+0x766>
  4029ad:	0f b6 53 02          	movzbl 0x2(%rbx),%edx
  4029b1:	f7 da                	neg    %edx
  4029b3:	89 d0                	mov    %edx,%eax
  4029b5:	f7 d8                	neg    %eax
  4029b7:	0f 84 17 fe ff ff    	je     4027d4 <submitr+0x587>
  4029bd:	b8 ff ff ff ff       	mov    $0xffffffff,%eax
  4029c2:	e9 0d fe ff ff       	jmpq   4027d4 <submitr+0x587>

00000000004029c7 <init_timeout>:
  4029c7:	85 ff                	test   %edi,%edi
  4029c9:	74 20                	je     4029eb <init_timeout+0x24>
  4029cb:	53                   	push   %rbx
  4029cc:	89 fb                	mov    %edi,%ebx
  4029ce:	85 ff                	test   %edi,%edi
  4029d0:	78 1b                	js     4029ed <init_timeout+0x26>
  4029d2:	48 8d 35 05 f6 ff ff 	lea    -0x9fb(%rip),%rsi        # 401fde <sigalrm_handler>
  4029d9:	bf 0e 00 00 00       	mov    $0xe,%edi
  4029de:	e8 cd e2 ff ff       	callq  400cb0 <signal@plt>
  4029e3:	89 df                	mov    %ebx,%edi
  4029e5:	e8 96 e2 ff ff       	callq  400c80 <alarm@plt>
  4029ea:	5b                   	pop    %rbx
  4029eb:	f3 c3                	repz retq 
  4029ed:	bb 00 00 00 00       	mov    $0x0,%ebx
  4029f2:	eb de                	jmp    4029d2 <init_timeout+0xb>

00000000004029f4 <init_driver>:
  4029f4:	41 54                	push   %r12
  4029f6:	55                   	push   %rbp
  4029f7:	53                   	push   %rbx
  4029f8:	48 83 ec 10          	sub    $0x10,%rsp
  4029fc:	48 89 fd             	mov    %rdi,%rbp
  4029ff:	be 01 00 00 00       	mov    $0x1,%esi
  402a04:	bf 0d 00 00 00       	mov    $0xd,%edi
  402a09:	e8 a2 e2 ff ff       	callq  400cb0 <signal@plt>
  402a0e:	be 01 00 00 00       	mov    $0x1,%esi
  402a13:	bf 1d 00 00 00       	mov    $0x1d,%edi
  402a18:	e8 93 e2 ff ff       	callq  400cb0 <signal@plt>
  402a1d:	be 01 00 00 00       	mov    $0x1,%esi
  402a22:	bf 1d 00 00 00       	mov    $0x1d,%edi
  402a27:	e8 84 e2 ff ff       	callq  400cb0 <signal@plt>
  402a2c:	ba 00 00 00 00       	mov    $0x0,%edx
  402a31:	be 01 00 00 00       	mov    $0x1,%esi
  402a36:	bf 02 00 00 00       	mov    $0x2,%edi
  402a3b:	e8 90 e3 ff ff       	callq  400dd0 <socket@plt>
  402a40:	85 c0                	test   %eax,%eax
  402a42:	0f 88 80 00 00 00    	js     402ac8 <init_driver+0xd4>
  402a48:	89 c3                	mov    %eax,%ebx
  402a4a:	48 8d 3d 34 0a 00 00 	lea    0xa34(%rip),%rdi        # 403485 <trans_char+0xc5>
  402a51:	e8 6a e2 ff ff       	callq  400cc0 <gethostbyname@plt>
  402a56:	48 85 c0             	test   %rax,%rax
  402a59:	0f 84 b5 00 00 00    	je     402b14 <init_driver+0x120>
  402a5f:	48 c7 04 24 00 00 00 	movq   $0x0,(%rsp)
  402a66:	00 
  402a67:	48 c7 44 24 08 00 00 	movq   $0x0,0x8(%rsp)
  402a6e:	00 00 
  402a70:	66 c7 04 24 02 00    	movw   $0x2,(%rsp)
  402a76:	48 8b 48 18          	mov    0x18(%rax),%rcx
  402a7a:	48 63 50 14          	movslq 0x14(%rax),%rdx
  402a7e:	48 8d 74 24 04       	lea    0x4(%rsp),%rsi
  402a83:	48 8b 39             	mov    (%rcx),%rdi
  402a86:	e8 c5 e2 ff ff       	callq  400d50 <bcopy@plt>
  402a8b:	66 c7 44 24 02 3c a4 	movw   $0xa43c,0x2(%rsp)
  402a92:	ba 10 00 00 00       	mov    $0x10,%edx
  402a97:	48 89 e6             	mov    %rsp,%rsi
  402a9a:	89 df                	mov    %ebx,%edi
  402a9c:	e8 1f e3 ff ff       	callq  400dc0 <connect@plt>
  402aa1:	85 c0                	test   %eax,%eax
  402aa3:	0f 88 d3 00 00 00    	js     402b7c <init_driver+0x188>
  402aa9:	89 df                	mov    %ebx,%edi
  402aab:	e8 e0 e1 ff ff       	callq  400c90 <close@plt>
  402ab0:	66 c7 45 00 4f 4b    	movw   $0x4b4f,0x0(%rbp)
  402ab6:	c6 45 02 00          	movb   $0x0,0x2(%rbp)
  402aba:	b8 00 00 00 00       	mov    $0x0,%eax
  402abf:	48 83 c4 10          	add    $0x10,%rsp
  402ac3:	5b                   	pop    %rbx
  402ac4:	5d                   	pop    %rbp
  402ac5:	41 5c                	pop    %r12
  402ac7:	c3                   	retq   
  402ac8:	48 b8 45 72 72 6f 72 	movabs $0x43203a726f727245,%rax
  402acf:	3a 20 43 
  402ad2:	48 89 45 00          	mov    %rax,0x0(%rbp)
  402ad6:	48 b8 6c 69 65 6e 74 	movabs $0x6e7520746e65696c,%rax
  402add:	20 75 6e 
  402ae0:	48 89 45 08          	mov    %rax,0x8(%rbp)
  402ae4:	48 b8 61 62 6c 65 20 	movabs $0x206f7420656c6261,%rax
  402aeb:	74 6f 20 
  402aee:	48 89 45 10          	mov    %rax,0x10(%rbp)
  402af2:	48 b8 63 72 65 61 74 	movabs $0x7320657461657263,%rax
  402af9:	65 20 73 
  402afc:	48 89 45 18          	mov    %rax,0x18(%rbp)
  402b00:	c7 45 20 6f 63 6b 65 	movl   $0x656b636f,0x20(%rbp)
  402b07:	66 c7 45 24 74 00    	movw   $0x74,0x24(%rbp)
  402b0d:	b8 ff ff ff ff       	mov    $0xffffffff,%eax
  402b12:	eb ab                	jmp    402abf <init_driver+0xcb>
  402b14:	48 b8 45 72 72 6f 72 	movabs $0x44203a726f727245,%rax
  402b1b:	3a 20 44 
  402b1e:	48 89 45 00          	mov    %rax,0x0(%rbp)
  402b22:	48 b8 4e 53 20 69 73 	movabs $0x6e7520736920534e,%rax
  402b29:	20 75 6e 
  402b2c:	48 89 45 08          	mov    %rax,0x8(%rbp)
  402b30:	48 b8 61 62 6c 65 20 	movabs $0x206f7420656c6261,%rax
  402b37:	74 6f 20 
  402b3a:	48 89 45 10          	mov    %rax,0x10(%rbp)
  402b3e:	48 b8 72 65 73 6f 6c 	movabs $0x2065766c6f736572,%rax
  402b45:	76 65 20 
  402b48:	48 89 45 18          	mov    %rax,0x18(%rbp)
  402b4c:	48 b8 73 65 72 76 65 	movabs $0x6120726576726573,%rax
  402b53:	72 20 61 
  402b56:	48 89 45 20          	mov    %rax,0x20(%rbp)
  402b5a:	c7 45 28 64 64 72 65 	movl   $0x65726464,0x28(%rbp)
  402b61:	66 c7 45 2c 73 73    	movw   $0x7373,0x2c(%rbp)
  402b67:	c6 45 2e 00          	movb   $0x0,0x2e(%rbp)
  402b6b:	89 df                	mov    %ebx,%edi
  402b6d:	e8 1e e1 ff ff       	callq  400c90 <close@plt>
  402b72:	b8 ff ff ff ff       	mov    $0xffffffff,%eax
  402b77:	e9 43 ff ff ff       	jmpq   402abf <init_driver+0xcb>
  402b7c:	48 b8 45 72 72 6f 72 	movabs $0x55203a726f727245,%rax
  402b83:	3a 20 55 
  402b86:	48 89 45 00          	mov    %rax,0x0(%rbp)
  402b8a:	48 b8 6e 61 62 6c 65 	movabs $0x6f7420656c62616e,%rax
  402b91:	20 74 6f 
  402b94:	48 89 45 08          	mov    %rax,0x8(%rbp)
  402b98:	48 b8 20 63 6f 6e 6e 	movabs $0x7463656e6e6f6320,%rax
  402b9f:	65 63 74 
  402ba2:	48 89 45 10          	mov    %rax,0x10(%rbp)
  402ba6:	48 b8 20 74 6f 20 73 	movabs $0x76726573206f7420,%rax
  402bad:	65 72 76 
  402bb0:	48 89 45 18          	mov    %rax,0x18(%rbp)
  402bb4:	66 c7 45 20 65 72    	movw   $0x7265,0x20(%rbp)
  402bba:	c6 45 22 00          	movb   $0x0,0x22(%rbp)
  402bbe:	89 df                	mov    %ebx,%edi
  402bc0:	e8 cb e0 ff ff       	callq  400c90 <close@plt>
  402bc5:	b8 ff ff ff ff       	mov    $0xffffffff,%eax
  402bca:	e9 f0 fe ff ff       	jmpq   402abf <init_driver+0xcb>

0000000000402bcf <driver_post>:
  402bcf:	53                   	push   %rbx
  402bd0:	4c 89 cb             	mov    %r9,%rbx
  402bd3:	45 85 c0             	test   %r8d,%r8d
  402bd6:	75 18                	jne    402bf0 <driver_post+0x21>
  402bd8:	48 85 ff             	test   %rdi,%rdi
  402bdb:	74 05                	je     402be2 <driver_post+0x13>
  402bdd:	80 3f 00             	cmpb   $0x0,(%rdi)
  402be0:	75 32                	jne    402c14 <driver_post+0x45>
  402be2:	66 c7 03 4f 4b       	movw   $0x4b4f,(%rbx)
  402be7:	c6 43 02 00          	movb   $0x0,0x2(%rbx)
  402beb:	44 89 c0             	mov    %r8d,%eax
  402bee:	5b                   	pop    %rbx
  402bef:	c3                   	retq   
  402bf0:	48 89 ce             	mov    %rcx,%rsi
  402bf3:	48 8d 3d 99 08 00 00 	lea    0x899(%rip),%rdi        # 403493 <trans_char+0xd3>
  402bfa:	b8 00 00 00 00       	mov    $0x0,%eax
  402bff:	e8 5c e0 ff ff       	callq  400c60 <printf@plt>
  402c04:	66 c7 03 4f 4b       	movw   $0x4b4f,(%rbx)
  402c09:	c6 43 02 00          	movb   $0x0,0x2(%rbx)
  402c0d:	b8 00 00 00 00       	mov    $0x0,%eax
  402c12:	eb da                	jmp    402bee <driver_post+0x1f>
  402c14:	48 83 ec 08          	sub    $0x8,%rsp
  402c18:	41 51                	push   %r9
  402c1a:	49 89 c9             	mov    %rcx,%r9
  402c1d:	49 89 d0             	mov    %rdx,%r8
  402c20:	48 89 f9             	mov    %rdi,%rcx
  402c23:	48 89 f2             	mov    %rsi,%rdx
  402c26:	be a4 3c 00 00       	mov    $0x3ca4,%esi
  402c2b:	48 8d 3d 53 08 00 00 	lea    0x853(%rip),%rdi        # 403485 <trans_char+0xc5>
  402c32:	e8 16 f6 ff ff       	callq  40224d <submitr>
  402c37:	48 83 c4 10          	add    $0x10,%rsp
  402c3b:	eb b1                	jmp    402bee <driver_post+0x1f>

0000000000402c3d <check>:
  402c3d:	89 f8                	mov    %edi,%eax
  402c3f:	c1 e8 1c             	shr    $0x1c,%eax
  402c42:	85 c0                	test   %eax,%eax
  402c44:	74 1d                	je     402c63 <check+0x26>
  402c46:	b9 00 00 00 00       	mov    $0x0,%ecx
  402c4b:	83 f9 1f             	cmp    $0x1f,%ecx
  402c4e:	7f 0d                	jg     402c5d <check+0x20>
  402c50:	89 f8                	mov    %edi,%eax
  402c52:	d3 e8                	shr    %cl,%eax
  402c54:	3c 0a                	cmp    $0xa,%al
  402c56:	74 11                	je     402c69 <check+0x2c>
  402c58:	83 c1 08             	add    $0x8,%ecx
  402c5b:	eb ee                	jmp    402c4b <check+0xe>
  402c5d:	b8 01 00 00 00       	mov    $0x1,%eax
  402c62:	c3                   	retq   
  402c63:	b8 00 00 00 00       	mov    $0x0,%eax
  402c68:	c3                   	retq   
  402c69:	b8 00 00 00 00       	mov    $0x0,%eax
  402c6e:	c3                   	retq   

0000000000402c6f <gencookie>:
  402c6f:	53                   	push   %rbx
  402c70:	83 c7 01             	add    $0x1,%edi
  402c73:	e8 88 df ff ff       	callq  400c00 <srandom@plt>
  402c78:	e8 93 e0 ff ff       	callq  400d10 <random@plt>
  402c7d:	89 c3                	mov    %eax,%ebx
  402c7f:	89 c7                	mov    %eax,%edi
  402c81:	e8 b7 ff ff ff       	callq  402c3d <check>
  402c86:	85 c0                	test   %eax,%eax
  402c88:	74 ee                	je     402c78 <gencookie+0x9>
  402c8a:	89 d8                	mov    %ebx,%eax
  402c8c:	5b                   	pop    %rbx
  402c8d:	c3                   	retq   
  402c8e:	66 90                	xchg   %ax,%ax

0000000000402c90 <__libc_csu_init>:
  402c90:	41 57                	push   %r15
  402c92:	41 56                	push   %r14
  402c94:	41 89 ff             	mov    %edi,%r15d
  402c97:	41 55                	push   %r13
  402c99:	41 54                	push   %r12
  402c9b:	4c 8d 25 66 21 20 00 	lea    0x202166(%rip),%r12        # 604e08 <__frame_dummy_init_array_entry>
  402ca2:	55                   	push   %rbp
  402ca3:	48 8d 2d 66 21 20 00 	lea    0x202166(%rip),%rbp        # 604e10 <__init_array_end>
  402caa:	53                   	push   %rbx
  402cab:	49 89 f6             	mov    %rsi,%r14
  402cae:	49 89 d5             	mov    %rdx,%r13
  402cb1:	4c 29 e5             	sub    %r12,%rbp
  402cb4:	48 83 ec 08          	sub    $0x8,%rsp
  402cb8:	48 c1 fd 03          	sar    $0x3,%rbp
  402cbc:	e8 ef de ff ff       	callq  400bb0 <_init>
  402cc1:	48 85 ed             	test   %rbp,%rbp
  402cc4:	74 20                	je     402ce6 <__libc_csu_init+0x56>
  402cc6:	31 db                	xor    %ebx,%ebx
  402cc8:	0f 1f 84 00 00 00 00 	nopl   0x0(%rax,%rax,1)
  402ccf:	00 
  402cd0:	4c 89 ea             	mov    %r13,%rdx
  402cd3:	4c 89 f6             	mov    %r14,%rsi
  402cd6:	44 89 ff             	mov    %r15d,%edi
  402cd9:	41 ff 14 dc          	callq  *(%r12,%rbx,8)
  402cdd:	48 83 c3 01          	add    $0x1,%rbx
  402ce1:	48 39 dd             	cmp    %rbx,%rbp
  402ce4:	75 ea                	jne    402cd0 <__libc_csu_init+0x40>
  402ce6:	48 83 c4 08          	add    $0x8,%rsp
  402cea:	5b                   	pop    %rbx
  402ceb:	5d                   	pop    %rbp
  402cec:	41 5c                	pop    %r12
  402cee:	41 5d                	pop    %r13
  402cf0:	41 5e                	pop    %r14
  402cf2:	41 5f                	pop    %r15
  402cf4:	c3                   	retq   
  402cf5:	90                   	nop
  402cf6:	66 2e 0f 1f 84 00 00 	nopw   %cs:0x0(%rax,%rax,1)
  402cfd:	00 00 00 

0000000000402d00 <__libc_csu_fini>:
  402d00:	f3 c3                	repz retq 

Disassembly of section .fini:

0000000000402d04 <_fini>:
  402d04:	48 83 ec 08          	sub    $0x8,%rsp
  402d08:	48 83 c4 08          	add    $0x8,%rsp
  402d0c:	c3                   	retq   
